
ledmatrix.elf:     file format elf32-littlearm

Sections:
Idx Name          Size      VMA       LMA       File off  Algn
  0 .isr_vector   00000194  08000000  08000000  00010000  2**0
                  CONTENTS, ALLOC, LOAD, READONLY, DATA
  1 .text         00005b0c  08000198  08000198  00010198  2**3
                  CONTENTS, ALLOC, LOAD, READONLY, CODE
  2 .rodata       00000e98  08005ca8  08005ca8  00015ca8  2**3
                  CONTENTS, ALLOC, LOAD, READONLY, DATA
  3 .ARM.extab    00000000  08006b40  08006b40  00020090  2**0
                  CONTENTS
  4 .ARM          00000008  08006b40  08006b40  00016b40  2**2
                  CONTENTS, ALLOC, LOAD, READONLY, DATA
  5 .preinit_array 00000000  08006b48  08006b48  00020090  2**0
                  CONTENTS, ALLOC, LOAD, DATA
  6 .init_array   00000004  08006b48  08006b48  00016b48  2**2
                  CONTENTS, ALLOC, LOAD, DATA
  7 .fini_array   00000004  08006b4c  08006b4c  00016b4c  2**2
                  CONTENTS, ALLOC, LOAD, DATA
  8 .data         00000090  20000000  08006b50  00020000  2**2
                  CONTENTS, ALLOC, LOAD, DATA
  9 .bss          0000e048  20000090  08006be0  00020090  2**2
                  ALLOC
 10 ._user_heap_stack 00000600  2000e0d8  08006be0  0002e0d8  2**0
                  ALLOC
 11 .ARM.attributes 00000030  00000000  00000000  00020090  2**0
                  CONTENTS, READONLY
 12 .comment      0000007b  00000000  00000000  000200c0  2**0
                  CONTENTS, READONLY
 13 .debug_frame  000004e0  00000000  00000000  0002013c  2**2
                  CONTENTS, READONLY, DEBUGGING

Disassembly of section .text:

08000198 <__do_global_dtors_aux>:
 8000198:	b510      	push	{r4, lr}
 800019a:	4c05      	ldr	r4, [pc, #20]	; (80001b0 <__do_global_dtors_aux+0x18>)
 800019c:	7823      	ldrb	r3, [r4, #0]
 800019e:	b933      	cbnz	r3, 80001ae <__do_global_dtors_aux+0x16>
 80001a0:	4b04      	ldr	r3, [pc, #16]	; (80001b4 <__do_global_dtors_aux+0x1c>)
 80001a2:	b113      	cbz	r3, 80001aa <__do_global_dtors_aux+0x12>
 80001a4:	4804      	ldr	r0, [pc, #16]	; (80001b8 <__do_global_dtors_aux+0x20>)
 80001a6:	f3af 8000 	nop.w
 80001aa:	2301      	movs	r3, #1
 80001ac:	7023      	strb	r3, [r4, #0]
 80001ae:	bd10      	pop	{r4, pc}
 80001b0:	20000090 	.word	0x20000090
 80001b4:	00000000 	.word	0x00000000
 80001b8:	08005c8c 	.word	0x08005c8c

080001bc <frame_dummy>:
 80001bc:	b508      	push	{r3, lr}
 80001be:	4b03      	ldr	r3, [pc, #12]	; (80001cc <frame_dummy+0x10>)
 80001c0:	b11b      	cbz	r3, 80001ca <frame_dummy+0xe>
 80001c2:	4903      	ldr	r1, [pc, #12]	; (80001d0 <frame_dummy+0x14>)
 80001c4:	4803      	ldr	r0, [pc, #12]	; (80001d4 <frame_dummy+0x18>)
 80001c6:	f3af 8000 	nop.w
 80001ca:	bd08      	pop	{r3, pc}
 80001cc:	00000000 	.word	0x00000000
 80001d0:	20000094 	.word	0x20000094
 80001d4:	08005c8c 	.word	0x08005c8c

080001d8 <strlen>:
 80001d8:	4603      	mov	r3, r0
 80001da:	f813 2b01 	ldrb.w	r2, [r3], #1
 80001de:	2a00      	cmp	r2, #0
 80001e0:	d1fb      	bne.n	80001da <strlen+0x2>
 80001e2:	1a18      	subs	r0, r3, r0
 80001e4:	3801      	subs	r0, #1
 80001e6:	4770      	bx	lr

080001e8 <__aeabi_drsub>:
 80001e8:	f081 4100 	eor.w	r1, r1, #2147483648	; 0x80000000
 80001ec:	e002      	b.n	80001f4 <__adddf3>
 80001ee:	bf00      	nop

080001f0 <__aeabi_dsub>:
 80001f0:	f083 4300 	eor.w	r3, r3, #2147483648	; 0x80000000

080001f4 <__adddf3>:
 80001f4:	b530      	push	{r4, r5, lr}
 80001f6:	ea4f 0441 	mov.w	r4, r1, lsl #1
 80001fa:	ea4f 0543 	mov.w	r5, r3, lsl #1
 80001fe:	ea94 0f05 	teq	r4, r5
 8000202:	bf08      	it	eq
 8000204:	ea90 0f02 	teqeq	r0, r2
 8000208:	bf1f      	itttt	ne
 800020a:	ea54 0c00 	orrsne.w	ip, r4, r0
 800020e:	ea55 0c02 	orrsne.w	ip, r5, r2
 8000212:	ea7f 5c64 	mvnsne.w	ip, r4, asr #21
 8000216:	ea7f 5c65 	mvnsne.w	ip, r5, asr #21
 800021a:	f000 80e2 	beq.w	80003e2 <__adddf3+0x1ee>
 800021e:	ea4f 5454 	mov.w	r4, r4, lsr #21
 8000222:	ebd4 5555 	rsbs	r5, r4, r5, lsr #21
 8000226:	bfb8      	it	lt
 8000228:	426d      	neglt	r5, r5
 800022a:	dd0c      	ble.n	8000246 <__adddf3+0x52>
 800022c:	442c      	add	r4, r5
 800022e:	ea80 0202 	eor.w	r2, r0, r2
 8000232:	ea81 0303 	eor.w	r3, r1, r3
 8000236:	ea82 0000 	eor.w	r0, r2, r0
 800023a:	ea83 0101 	eor.w	r1, r3, r1
 800023e:	ea80 0202 	eor.w	r2, r0, r2
 8000242:	ea81 0303 	eor.w	r3, r1, r3
 8000246:	2d36      	cmp	r5, #54	; 0x36
 8000248:	bf88      	it	hi
 800024a:	bd30      	pophi	{r4, r5, pc}
 800024c:	f011 4f00 	tst.w	r1, #2147483648	; 0x80000000
 8000250:	ea4f 3101 	mov.w	r1, r1, lsl #12
 8000254:	f44f 1c80 	mov.w	ip, #1048576	; 0x100000
 8000258:	ea4c 3111 	orr.w	r1, ip, r1, lsr #12
 800025c:	d002      	beq.n	8000264 <__adddf3+0x70>
 800025e:	4240      	negs	r0, r0
 8000260:	eb61 0141 	sbc.w	r1, r1, r1, lsl #1
 8000264:	f013 4f00 	tst.w	r3, #2147483648	; 0x80000000
 8000268:	ea4f 3303 	mov.w	r3, r3, lsl #12
 800026c:	ea4c 3313 	orr.w	r3, ip, r3, lsr #12
 8000270:	d002      	beq.n	8000278 <__adddf3+0x84>
 8000272:	4252      	negs	r2, r2
 8000274:	eb63 0343 	sbc.w	r3, r3, r3, lsl #1
 8000278:	ea94 0f05 	teq	r4, r5
 800027c:	f000 80a7 	beq.w	80003ce <__adddf3+0x1da>
 8000280:	f1a4 0401 	sub.w	r4, r4, #1
 8000284:	f1d5 0e20 	rsbs	lr, r5, #32
 8000288:	db0d      	blt.n	80002a6 <__adddf3+0xb2>
 800028a:	fa02 fc0e 	lsl.w	ip, r2, lr
 800028e:	fa22 f205 	lsr.w	r2, r2, r5
 8000292:	1880      	adds	r0, r0, r2
 8000294:	f141 0100 	adc.w	r1, r1, #0
 8000298:	fa03 f20e 	lsl.w	r2, r3, lr
 800029c:	1880      	adds	r0, r0, r2
 800029e:	fa43 f305 	asr.w	r3, r3, r5
 80002a2:	4159      	adcs	r1, r3
 80002a4:	e00e      	b.n	80002c4 <__adddf3+0xd0>
 80002a6:	f1a5 0520 	sub.w	r5, r5, #32
 80002aa:	f10e 0e20 	add.w	lr, lr, #32
 80002ae:	2a01      	cmp	r2, #1
 80002b0:	fa03 fc0e 	lsl.w	ip, r3, lr
 80002b4:	bf28      	it	cs
 80002b6:	f04c 0c02 	orrcs.w	ip, ip, #2
 80002ba:	fa43 f305 	asr.w	r3, r3, r5
 80002be:	18c0      	adds	r0, r0, r3
 80002c0:	eb51 71e3 	adcs.w	r1, r1, r3, asr #31
 80002c4:	f001 4500 	and.w	r5, r1, #2147483648	; 0x80000000
 80002c8:	d507      	bpl.n	80002da <__adddf3+0xe6>
 80002ca:	f04f 0e00 	mov.w	lr, #0
 80002ce:	f1dc 0c00 	rsbs	ip, ip, #0
 80002d2:	eb7e 0000 	sbcs.w	r0, lr, r0
 80002d6:	eb6e 0101 	sbc.w	r1, lr, r1
 80002da:	f5b1 1f80 	cmp.w	r1, #1048576	; 0x100000
 80002de:	d31b      	bcc.n	8000318 <__adddf3+0x124>
 80002e0:	f5b1 1f00 	cmp.w	r1, #2097152	; 0x200000
 80002e4:	d30c      	bcc.n	8000300 <__adddf3+0x10c>
 80002e6:	0849      	lsrs	r1, r1, #1
 80002e8:	ea5f 0030 	movs.w	r0, r0, rrx
 80002ec:	ea4f 0c3c 	mov.w	ip, ip, rrx
 80002f0:	f104 0401 	add.w	r4, r4, #1
 80002f4:	ea4f 5244 	mov.w	r2, r4, lsl #21
 80002f8:	f512 0f80 	cmn.w	r2, #4194304	; 0x400000
 80002fc:	f080 809a 	bcs.w	8000434 <__adddf3+0x240>
 8000300:	f1bc 4f00 	cmp.w	ip, #2147483648	; 0x80000000
 8000304:	bf08      	it	eq
 8000306:	ea5f 0c50 	movseq.w	ip, r0, lsr #1
 800030a:	f150 0000 	adcs.w	r0, r0, #0
 800030e:	eb41 5104 	adc.w	r1, r1, r4, lsl #20
 8000312:	ea41 0105 	orr.w	r1, r1, r5
 8000316:	bd30      	pop	{r4, r5, pc}
 8000318:	ea5f 0c4c 	movs.w	ip, ip, lsl #1
 800031c:	4140      	adcs	r0, r0
 800031e:	eb41 0101 	adc.w	r1, r1, r1
 8000322:	f411 1f80 	tst.w	r1, #1048576	; 0x100000
 8000326:	f1a4 0401 	sub.w	r4, r4, #1
 800032a:	d1e9      	bne.n	8000300 <__adddf3+0x10c>
 800032c:	f091 0f00 	teq	r1, #0
 8000330:	bf04      	itt	eq
 8000332:	4601      	moveq	r1, r0
 8000334:	2000      	moveq	r0, #0
 8000336:	fab1 f381 	clz	r3, r1
 800033a:	bf08      	it	eq
 800033c:	3320      	addeq	r3, #32
 800033e:	f1a3 030b 	sub.w	r3, r3, #11
 8000342:	f1b3 0220 	subs.w	r2, r3, #32
 8000346:	da0c      	bge.n	8000362 <__adddf3+0x16e>
 8000348:	320c      	adds	r2, #12
 800034a:	dd08      	ble.n	800035e <__adddf3+0x16a>
 800034c:	f102 0c14 	add.w	ip, r2, #20
 8000350:	f1c2 020c 	rsb	r2, r2, #12
 8000354:	fa01 f00c 	lsl.w	r0, r1, ip
 8000358:	fa21 f102 	lsr.w	r1, r1, r2
 800035c:	e00c      	b.n	8000378 <__adddf3+0x184>
 800035e:	f102 0214 	add.w	r2, r2, #20
 8000362:	bfd8      	it	le
 8000364:	f1c2 0c20 	rsble	ip, r2, #32
 8000368:	fa01 f102 	lsl.w	r1, r1, r2
 800036c:	fa20 fc0c 	lsr.w	ip, r0, ip
 8000370:	bfdc      	itt	le
 8000372:	ea41 010c 	orrle.w	r1, r1, ip
 8000376:	4090      	lslle	r0, r2
 8000378:	1ae4      	subs	r4, r4, r3
 800037a:	bfa2      	ittt	ge
 800037c:	eb01 5104 	addge.w	r1, r1, r4, lsl #20
 8000380:	4329      	orrge	r1, r5
 8000382:	bd30      	popge	{r4, r5, pc}
 8000384:	ea6f 0404 	mvn.w	r4, r4
 8000388:	3c1f      	subs	r4, #31
 800038a:	da1c      	bge.n	80003c6 <__adddf3+0x1d2>
 800038c:	340c      	adds	r4, #12
 800038e:	dc0e      	bgt.n	80003ae <__adddf3+0x1ba>
 8000390:	f104 0414 	add.w	r4, r4, #20
 8000394:	f1c4 0220 	rsb	r2, r4, #32
 8000398:	fa20 f004 	lsr.w	r0, r0, r4
 800039c:	fa01 f302 	lsl.w	r3, r1, r2
 80003a0:	ea40 0003 	orr.w	r0, r0, r3
 80003a4:	fa21 f304 	lsr.w	r3, r1, r4
 80003a8:	ea45 0103 	orr.w	r1, r5, r3
 80003ac:	bd30      	pop	{r4, r5, pc}
 80003ae:	f1c4 040c 	rsb	r4, r4, #12
 80003b2:	f1c4 0220 	rsb	r2, r4, #32
 80003b6:	fa20 f002 	lsr.w	r0, r0, r2
 80003ba:	fa01 f304 	lsl.w	r3, r1, r4
 80003be:	ea40 0003 	orr.w	r0, r0, r3
 80003c2:	4629      	mov	r1, r5
 80003c4:	bd30      	pop	{r4, r5, pc}
 80003c6:	fa21 f004 	lsr.w	r0, r1, r4
 80003ca:	4629      	mov	r1, r5
 80003cc:	bd30      	pop	{r4, r5, pc}
 80003ce:	f094 0f00 	teq	r4, #0
 80003d2:	f483 1380 	eor.w	r3, r3, #1048576	; 0x100000
 80003d6:	bf06      	itte	eq
 80003d8:	f481 1180 	eoreq.w	r1, r1, #1048576	; 0x100000
 80003dc:	3401      	addeq	r4, #1
 80003de:	3d01      	subne	r5, #1
 80003e0:	e74e      	b.n	8000280 <__adddf3+0x8c>
 80003e2:	ea7f 5c64 	mvns.w	ip, r4, asr #21
 80003e6:	bf18      	it	ne
 80003e8:	ea7f 5c65 	mvnsne.w	ip, r5, asr #21
 80003ec:	d029      	beq.n	8000442 <__adddf3+0x24e>
 80003ee:	ea94 0f05 	teq	r4, r5
 80003f2:	bf08      	it	eq
 80003f4:	ea90 0f02 	teqeq	r0, r2
 80003f8:	d005      	beq.n	8000406 <__adddf3+0x212>
 80003fa:	ea54 0c00 	orrs.w	ip, r4, r0
 80003fe:	bf04      	itt	eq
 8000400:	4619      	moveq	r1, r3
 8000402:	4610      	moveq	r0, r2
 8000404:	bd30      	pop	{r4, r5, pc}
 8000406:	ea91 0f03 	teq	r1, r3
 800040a:	bf1e      	ittt	ne
 800040c:	2100      	movne	r1, #0
 800040e:	2000      	movne	r0, #0
 8000410:	bd30      	popne	{r4, r5, pc}
 8000412:	ea5f 5c54 	movs.w	ip, r4, lsr #21
 8000416:	d105      	bne.n	8000424 <__adddf3+0x230>
 8000418:	0040      	lsls	r0, r0, #1
 800041a:	4149      	adcs	r1, r1
 800041c:	bf28      	it	cs
 800041e:	f041 4100 	orrcs.w	r1, r1, #2147483648	; 0x80000000
 8000422:	bd30      	pop	{r4, r5, pc}
 8000424:	f514 0480 	adds.w	r4, r4, #4194304	; 0x400000
 8000428:	bf3c      	itt	cc
 800042a:	f501 1180 	addcc.w	r1, r1, #1048576	; 0x100000
 800042e:	bd30      	popcc	{r4, r5, pc}
 8000430:	f001 4500 	and.w	r5, r1, #2147483648	; 0x80000000
 8000434:	f045 41fe 	orr.w	r1, r5, #2130706432	; 0x7f000000
 8000438:	f441 0170 	orr.w	r1, r1, #15728640	; 0xf00000
 800043c:	f04f 0000 	mov.w	r0, #0
 8000440:	bd30      	pop	{r4, r5, pc}
 8000442:	ea7f 5c64 	mvns.w	ip, r4, asr #21
 8000446:	bf1a      	itte	ne
 8000448:	4619      	movne	r1, r3
 800044a:	4610      	movne	r0, r2
 800044c:	ea7f 5c65 	mvnseq.w	ip, r5, asr #21
 8000450:	bf1c      	itt	ne
 8000452:	460b      	movne	r3, r1
 8000454:	4602      	movne	r2, r0
 8000456:	ea50 3401 	orrs.w	r4, r0, r1, lsl #12
 800045a:	bf06      	itte	eq
 800045c:	ea52 3503 	orrseq.w	r5, r2, r3, lsl #12
 8000460:	ea91 0f03 	teqeq	r1, r3
 8000464:	f441 2100 	orrne.w	r1, r1, #524288	; 0x80000
 8000468:	bd30      	pop	{r4, r5, pc}
 800046a:	bf00      	nop

0800046c <__aeabi_ui2d>:
 800046c:	f090 0f00 	teq	r0, #0
 8000470:	bf04      	itt	eq
 8000472:	2100      	moveq	r1, #0
 8000474:	4770      	bxeq	lr
 8000476:	b530      	push	{r4, r5, lr}
 8000478:	f44f 6480 	mov.w	r4, #1024	; 0x400
 800047c:	f104 0432 	add.w	r4, r4, #50	; 0x32
 8000480:	f04f 0500 	mov.w	r5, #0
 8000484:	f04f 0100 	mov.w	r1, #0
 8000488:	e750      	b.n	800032c <__adddf3+0x138>
 800048a:	bf00      	nop

0800048c <__aeabi_i2d>:
 800048c:	f090 0f00 	teq	r0, #0
 8000490:	bf04      	itt	eq
 8000492:	2100      	moveq	r1, #0
 8000494:	4770      	bxeq	lr
 8000496:	b530      	push	{r4, r5, lr}
 8000498:	f44f 6480 	mov.w	r4, #1024	; 0x400
 800049c:	f104 0432 	add.w	r4, r4, #50	; 0x32
 80004a0:	f010 4500 	ands.w	r5, r0, #2147483648	; 0x80000000
 80004a4:	bf48      	it	mi
 80004a6:	4240      	negmi	r0, r0
 80004a8:	f04f 0100 	mov.w	r1, #0
 80004ac:	e73e      	b.n	800032c <__adddf3+0x138>
 80004ae:	bf00      	nop

080004b0 <__aeabi_f2d>:
 80004b0:	0042      	lsls	r2, r0, #1
 80004b2:	ea4f 01e2 	mov.w	r1, r2, asr #3
 80004b6:	ea4f 0131 	mov.w	r1, r1, rrx
 80004ba:	ea4f 7002 	mov.w	r0, r2, lsl #28
 80004be:	bf1f      	itttt	ne
 80004c0:	f012 437f 	andsne.w	r3, r2, #4278190080	; 0xff000000
 80004c4:	f093 4f7f 	teqne	r3, #4278190080	; 0xff000000
 80004c8:	f081 5160 	eorne.w	r1, r1, #939524096	; 0x38000000
 80004cc:	4770      	bxne	lr
 80004ce:	f032 427f 	bics.w	r2, r2, #4278190080	; 0xff000000
 80004d2:	bf08      	it	eq
 80004d4:	4770      	bxeq	lr
 80004d6:	f093 4f7f 	teq	r3, #4278190080	; 0xff000000
 80004da:	bf04      	itt	eq
 80004dc:	f441 2100 	orreq.w	r1, r1, #524288	; 0x80000
 80004e0:	4770      	bxeq	lr
 80004e2:	b530      	push	{r4, r5, lr}
 80004e4:	f44f 7460 	mov.w	r4, #896	; 0x380
 80004e8:	f001 4500 	and.w	r5, r1, #2147483648	; 0x80000000
 80004ec:	f021 4100 	bic.w	r1, r1, #2147483648	; 0x80000000
 80004f0:	e71c      	b.n	800032c <__adddf3+0x138>
 80004f2:	bf00      	nop

080004f4 <__aeabi_ul2d>:
 80004f4:	ea50 0201 	orrs.w	r2, r0, r1
 80004f8:	bf08      	it	eq
 80004fa:	4770      	bxeq	lr
 80004fc:	b530      	push	{r4, r5, lr}
 80004fe:	f04f 0500 	mov.w	r5, #0
 8000502:	e00a      	b.n	800051a <__aeabi_l2d+0x16>

08000504 <__aeabi_l2d>:
 8000504:	ea50 0201 	orrs.w	r2, r0, r1
 8000508:	bf08      	it	eq
 800050a:	4770      	bxeq	lr
 800050c:	b530      	push	{r4, r5, lr}
 800050e:	f011 4500 	ands.w	r5, r1, #2147483648	; 0x80000000
 8000512:	d502      	bpl.n	800051a <__aeabi_l2d+0x16>
 8000514:	4240      	negs	r0, r0
 8000516:	eb61 0141 	sbc.w	r1, r1, r1, lsl #1
 800051a:	f44f 6480 	mov.w	r4, #1024	; 0x400
 800051e:	f104 0432 	add.w	r4, r4, #50	; 0x32
 8000522:	ea5f 5c91 	movs.w	ip, r1, lsr #22
 8000526:	f43f aed8 	beq.w	80002da <__adddf3+0xe6>
 800052a:	f04f 0203 	mov.w	r2, #3
 800052e:	ea5f 0cdc 	movs.w	ip, ip, lsr #3
 8000532:	bf18      	it	ne
 8000534:	3203      	addne	r2, #3
 8000536:	ea5f 0cdc 	movs.w	ip, ip, lsr #3
 800053a:	bf18      	it	ne
 800053c:	3203      	addne	r2, #3
 800053e:	eb02 02dc 	add.w	r2, r2, ip, lsr #3
 8000542:	f1c2 0320 	rsb	r3, r2, #32
 8000546:	fa00 fc03 	lsl.w	ip, r0, r3
 800054a:	fa20 f002 	lsr.w	r0, r0, r2
 800054e:	fa01 fe03 	lsl.w	lr, r1, r3
 8000552:	ea40 000e 	orr.w	r0, r0, lr
 8000556:	fa21 f102 	lsr.w	r1, r1, r2
 800055a:	4414      	add	r4, r2
 800055c:	e6bd      	b.n	80002da <__adddf3+0xe6>
 800055e:	bf00      	nop

08000560 <__aeabi_dmul>:
 8000560:	b570      	push	{r4, r5, r6, lr}
 8000562:	f04f 0cff 	mov.w	ip, #255	; 0xff
 8000566:	f44c 6ce0 	orr.w	ip, ip, #1792	; 0x700
 800056a:	ea1c 5411 	ands.w	r4, ip, r1, lsr #20
 800056e:	bf1d      	ittte	ne
 8000570:	ea1c 5513 	andsne.w	r5, ip, r3, lsr #20
 8000574:	ea94 0f0c 	teqne	r4, ip
 8000578:	ea95 0f0c 	teqne	r5, ip
 800057c:	f000 f8de 	bleq	800073c <__aeabi_dmul+0x1dc>
 8000580:	442c      	add	r4, r5
 8000582:	ea81 0603 	eor.w	r6, r1, r3
 8000586:	ea21 514c 	bic.w	r1, r1, ip, lsl #21
 800058a:	ea23 534c 	bic.w	r3, r3, ip, lsl #21
 800058e:	ea50 3501 	orrs.w	r5, r0, r1, lsl #12
 8000592:	bf18      	it	ne
 8000594:	ea52 3503 	orrsne.w	r5, r2, r3, lsl #12
 8000598:	f441 1180 	orr.w	r1, r1, #1048576	; 0x100000
 800059c:	f443 1380 	orr.w	r3, r3, #1048576	; 0x100000
 80005a0:	d038      	beq.n	8000614 <__aeabi_dmul+0xb4>
 80005a2:	fba0 ce02 	umull	ip, lr, r0, r2
 80005a6:	f04f 0500 	mov.w	r5, #0
 80005aa:	fbe1 e502 	umlal	lr, r5, r1, r2
 80005ae:	f006 4200 	and.w	r2, r6, #2147483648	; 0x80000000
 80005b2:	fbe0 e503 	umlal	lr, r5, r0, r3
 80005b6:	f04f 0600 	mov.w	r6, #0
 80005ba:	fbe1 5603 	umlal	r5, r6, r1, r3
 80005be:	f09c 0f00 	teq	ip, #0
 80005c2:	bf18      	it	ne
 80005c4:	f04e 0e01 	orrne.w	lr, lr, #1
 80005c8:	f1a4 04ff 	sub.w	r4, r4, #255	; 0xff
 80005cc:	f5b6 7f00 	cmp.w	r6, #512	; 0x200
 80005d0:	f564 7440 	sbc.w	r4, r4, #768	; 0x300
 80005d4:	d204      	bcs.n	80005e0 <__aeabi_dmul+0x80>
 80005d6:	ea5f 0e4e 	movs.w	lr, lr, lsl #1
 80005da:	416d      	adcs	r5, r5
 80005dc:	eb46 0606 	adc.w	r6, r6, r6
 80005e0:	ea42 21c6 	orr.w	r1, r2, r6, lsl #11
 80005e4:	ea41 5155 	orr.w	r1, r1, r5, lsr #21
 80005e8:	ea4f 20c5 	mov.w	r0, r5, lsl #11
 80005ec:	ea40 505e 	orr.w	r0, r0, lr, lsr #21
 80005f0:	ea4f 2ece 	mov.w	lr, lr, lsl #11
 80005f4:	f1b4 0cfd 	subs.w	ip, r4, #253	; 0xfd
 80005f8:	bf88      	it	hi
 80005fa:	f5bc 6fe0 	cmphi.w	ip, #1792	; 0x700
 80005fe:	d81e      	bhi.n	800063e <__aeabi_dmul+0xde>
 8000600:	f1be 4f00 	cmp.w	lr, #2147483648	; 0x80000000
 8000604:	bf08      	it	eq
 8000606:	ea5f 0e50 	movseq.w	lr, r0, lsr #1
 800060a:	f150 0000 	adcs.w	r0, r0, #0
 800060e:	eb41 5104 	adc.w	r1, r1, r4, lsl #20
 8000612:	bd70      	pop	{r4, r5, r6, pc}
 8000614:	f006 4600 	and.w	r6, r6, #2147483648	; 0x80000000
 8000618:	ea46 0101 	orr.w	r1, r6, r1
 800061c:	ea40 0002 	orr.w	r0, r0, r2
 8000620:	ea81 0103 	eor.w	r1, r1, r3
 8000624:	ebb4 045c 	subs.w	r4, r4, ip, lsr #1
 8000628:	bfc2      	ittt	gt
 800062a:	ebd4 050c 	rsbsgt	r5, r4, ip
 800062e:	ea41 5104 	orrgt.w	r1, r1, r4, lsl #20
 8000632:	bd70      	popgt	{r4, r5, r6, pc}
 8000634:	f441 1180 	orr.w	r1, r1, #1048576	; 0x100000
 8000638:	f04f 0e00 	mov.w	lr, #0
 800063c:	3c01      	subs	r4, #1
 800063e:	f300 80ab 	bgt.w	8000798 <__aeabi_dmul+0x238>
 8000642:	f114 0f36 	cmn.w	r4, #54	; 0x36
 8000646:	bfde      	ittt	le
 8000648:	2000      	movle	r0, #0
 800064a:	f001 4100 	andle.w	r1, r1, #2147483648	; 0x80000000
 800064e:	bd70      	pople	{r4, r5, r6, pc}
 8000650:	f1c4 0400 	rsb	r4, r4, #0
 8000654:	3c20      	subs	r4, #32
 8000656:	da35      	bge.n	80006c4 <__aeabi_dmul+0x164>
 8000658:	340c      	adds	r4, #12
 800065a:	dc1b      	bgt.n	8000694 <__aeabi_dmul+0x134>
 800065c:	f104 0414 	add.w	r4, r4, #20
 8000660:	f1c4 0520 	rsb	r5, r4, #32
 8000664:	fa00 f305 	lsl.w	r3, r0, r5
 8000668:	fa20 f004 	lsr.w	r0, r0, r4
 800066c:	fa01 f205 	lsl.w	r2, r1, r5
 8000670:	ea40 0002 	orr.w	r0, r0, r2
 8000674:	f001 4200 	and.w	r2, r1, #2147483648	; 0x80000000
 8000678:	f021 4100 	bic.w	r1, r1, #2147483648	; 0x80000000
 800067c:	eb10 70d3 	adds.w	r0, r0, r3, lsr #31
 8000680:	fa21 f604 	lsr.w	r6, r1, r4
 8000684:	eb42 0106 	adc.w	r1, r2, r6
 8000688:	ea5e 0e43 	orrs.w	lr, lr, r3, lsl #1
 800068c:	bf08      	it	eq
 800068e:	ea20 70d3 	biceq.w	r0, r0, r3, lsr #31
 8000692:	bd70      	pop	{r4, r5, r6, pc}
 8000694:	f1c4 040c 	rsb	r4, r4, #12
 8000698:	f1c4 0520 	rsb	r5, r4, #32
 800069c:	fa00 f304 	lsl.w	r3, r0, r4
 80006a0:	fa20 f005 	lsr.w	r0, r0, r5
 80006a4:	fa01 f204 	lsl.w	r2, r1, r4
 80006a8:	ea40 0002 	orr.w	r0, r0, r2
 80006ac:	f001 4100 	and.w	r1, r1, #2147483648	; 0x80000000
 80006b0:	eb10 70d3 	adds.w	r0, r0, r3, lsr #31
 80006b4:	f141 0100 	adc.w	r1, r1, #0
 80006b8:	ea5e 0e43 	orrs.w	lr, lr, r3, lsl #1
 80006bc:	bf08      	it	eq
 80006be:	ea20 70d3 	biceq.w	r0, r0, r3, lsr #31
 80006c2:	bd70      	pop	{r4, r5, r6, pc}
 80006c4:	f1c4 0520 	rsb	r5, r4, #32
 80006c8:	fa00 f205 	lsl.w	r2, r0, r5
 80006cc:	ea4e 0e02 	orr.w	lr, lr, r2
 80006d0:	fa20 f304 	lsr.w	r3, r0, r4
 80006d4:	fa01 f205 	lsl.w	r2, r1, r5
 80006d8:	ea43 0302 	orr.w	r3, r3, r2
 80006dc:	fa21 f004 	lsr.w	r0, r1, r4
 80006e0:	f001 4100 	and.w	r1, r1, #2147483648	; 0x80000000
 80006e4:	fa21 f204 	lsr.w	r2, r1, r4
 80006e8:	ea20 0002 	bic.w	r0, r0, r2
 80006ec:	eb00 70d3 	add.w	r0, r0, r3, lsr #31
 80006f0:	ea5e 0e43 	orrs.w	lr, lr, r3, lsl #1
 80006f4:	bf08      	it	eq
 80006f6:	ea20 70d3 	biceq.w	r0, r0, r3, lsr #31
 80006fa:	bd70      	pop	{r4, r5, r6, pc}
 80006fc:	f094 0f00 	teq	r4, #0
 8000700:	d10f      	bne.n	8000722 <__aeabi_dmul+0x1c2>
 8000702:	f001 4600 	and.w	r6, r1, #2147483648	; 0x80000000
 8000706:	0040      	lsls	r0, r0, #1
 8000708:	eb41 0101 	adc.w	r1, r1, r1
 800070c:	f411 1f80 	tst.w	r1, #1048576	; 0x100000
 8000710:	bf08      	it	eq
 8000712:	3c01      	subeq	r4, #1
 8000714:	d0f7      	beq.n	8000706 <__aeabi_dmul+0x1a6>
 8000716:	ea41 0106 	orr.w	r1, r1, r6
 800071a:	f095 0f00 	teq	r5, #0
 800071e:	bf18      	it	ne
 8000720:	4770      	bxne	lr
 8000722:	f003 4600 	and.w	r6, r3, #2147483648	; 0x80000000
 8000726:	0052      	lsls	r2, r2, #1
 8000728:	eb43 0303 	adc.w	r3, r3, r3
 800072c:	f413 1f80 	tst.w	r3, #1048576	; 0x100000
 8000730:	bf08      	it	eq
 8000732:	3d01      	subeq	r5, #1
 8000734:	d0f7      	beq.n	8000726 <__aeabi_dmul+0x1c6>
 8000736:	ea43 0306 	orr.w	r3, r3, r6
 800073a:	4770      	bx	lr
 800073c:	ea94 0f0c 	teq	r4, ip
 8000740:	ea0c 5513 	and.w	r5, ip, r3, lsr #20
 8000744:	bf18      	it	ne
 8000746:	ea95 0f0c 	teqne	r5, ip
 800074a:	d00c      	beq.n	8000766 <__aeabi_dmul+0x206>
 800074c:	ea50 0641 	orrs.w	r6, r0, r1, lsl #1
 8000750:	bf18      	it	ne
 8000752:	ea52 0643 	orrsne.w	r6, r2, r3, lsl #1
 8000756:	d1d1      	bne.n	80006fc <__aeabi_dmul+0x19c>
 8000758:	ea81 0103 	eor.w	r1, r1, r3
 800075c:	f001 4100 	and.w	r1, r1, #2147483648	; 0x80000000
 8000760:	f04f 0000 	mov.w	r0, #0
 8000764:	bd70      	pop	{r4, r5, r6, pc}
 8000766:	ea50 0641 	orrs.w	r6, r0, r1, lsl #1
 800076a:	bf06      	itte	eq
 800076c:	4610      	moveq	r0, r2
 800076e:	4619      	moveq	r1, r3
 8000770:	ea52 0643 	orrsne.w	r6, r2, r3, lsl #1
 8000774:	d019      	beq.n	80007aa <__aeabi_dmul+0x24a>
 8000776:	ea94 0f0c 	teq	r4, ip
 800077a:	d102      	bne.n	8000782 <__aeabi_dmul+0x222>
 800077c:	ea50 3601 	orrs.w	r6, r0, r1, lsl #12
 8000780:	d113      	bne.n	80007aa <__aeabi_dmul+0x24a>
 8000782:	ea95 0f0c 	teq	r5, ip
 8000786:	d105      	bne.n	8000794 <__aeabi_dmul+0x234>
 8000788:	ea52 3603 	orrs.w	r6, r2, r3, lsl #12
 800078c:	bf1c      	itt	ne
 800078e:	4610      	movne	r0, r2
 8000790:	4619      	movne	r1, r3
 8000792:	d10a      	bne.n	80007aa <__aeabi_dmul+0x24a>
 8000794:	ea81 0103 	eor.w	r1, r1, r3
 8000798:	f001 4100 	and.w	r1, r1, #2147483648	; 0x80000000
 800079c:	f041 41fe 	orr.w	r1, r1, #2130706432	; 0x7f000000
 80007a0:	f441 0170 	orr.w	r1, r1, #15728640	; 0xf00000
 80007a4:	f04f 0000 	mov.w	r0, #0
 80007a8:	bd70      	pop	{r4, r5, r6, pc}
 80007aa:	f041 41fe 	orr.w	r1, r1, #2130706432	; 0x7f000000
 80007ae:	f441 0178 	orr.w	r1, r1, #16252928	; 0xf80000
 80007b2:	bd70      	pop	{r4, r5, r6, pc}

080007b4 <__aeabi_ddiv>:
 80007b4:	b570      	push	{r4, r5, r6, lr}
 80007b6:	f04f 0cff 	mov.w	ip, #255	; 0xff
 80007ba:	f44c 6ce0 	orr.w	ip, ip, #1792	; 0x700
 80007be:	ea1c 5411 	ands.w	r4, ip, r1, lsr #20
 80007c2:	bf1d      	ittte	ne
 80007c4:	ea1c 5513 	andsne.w	r5, ip, r3, lsr #20
 80007c8:	ea94 0f0c 	teqne	r4, ip
 80007cc:	ea95 0f0c 	teqne	r5, ip
 80007d0:	f000 f8a7 	bleq	8000922 <__aeabi_ddiv+0x16e>
 80007d4:	eba4 0405 	sub.w	r4, r4, r5
 80007d8:	ea81 0e03 	eor.w	lr, r1, r3
 80007dc:	ea52 3503 	orrs.w	r5, r2, r3, lsl #12
 80007e0:	ea4f 3101 	mov.w	r1, r1, lsl #12
 80007e4:	f000 8088 	beq.w	80008f8 <__aeabi_ddiv+0x144>
 80007e8:	ea4f 3303 	mov.w	r3, r3, lsl #12
 80007ec:	f04f 5580 	mov.w	r5, #268435456	; 0x10000000
 80007f0:	ea45 1313 	orr.w	r3, r5, r3, lsr #4
 80007f4:	ea43 6312 	orr.w	r3, r3, r2, lsr #24
 80007f8:	ea4f 2202 	mov.w	r2, r2, lsl #8
 80007fc:	ea45 1511 	orr.w	r5, r5, r1, lsr #4
 8000800:	ea45 6510 	orr.w	r5, r5, r0, lsr #24
 8000804:	ea4f 2600 	mov.w	r6, r0, lsl #8
 8000808:	f00e 4100 	and.w	r1, lr, #2147483648	; 0x80000000
 800080c:	429d      	cmp	r5, r3
 800080e:	bf08      	it	eq
 8000810:	4296      	cmpeq	r6, r2
 8000812:	f144 04fd 	adc.w	r4, r4, #253	; 0xfd
 8000816:	f504 7440 	add.w	r4, r4, #768	; 0x300
 800081a:	d202      	bcs.n	8000822 <__aeabi_ddiv+0x6e>
 800081c:	085b      	lsrs	r3, r3, #1
 800081e:	ea4f 0232 	mov.w	r2, r2, rrx
 8000822:	1ab6      	subs	r6, r6, r2
 8000824:	eb65 0503 	sbc.w	r5, r5, r3
 8000828:	085b      	lsrs	r3, r3, #1
 800082a:	ea4f 0232 	mov.w	r2, r2, rrx
 800082e:	f44f 1080 	mov.w	r0, #1048576	; 0x100000
 8000832:	f44f 2c00 	mov.w	ip, #524288	; 0x80000
 8000836:	ebb6 0e02 	subs.w	lr, r6, r2
 800083a:	eb75 0e03 	sbcs.w	lr, r5, r3
 800083e:	bf22      	ittt	cs
 8000840:	1ab6      	subcs	r6, r6, r2
 8000842:	4675      	movcs	r5, lr
 8000844:	ea40 000c 	orrcs.w	r0, r0, ip
 8000848:	085b      	lsrs	r3, r3, #1
 800084a:	ea4f 0232 	mov.w	r2, r2, rrx
 800084e:	ebb6 0e02 	subs.w	lr, r6, r2
 8000852:	eb75 0e03 	sbcs.w	lr, r5, r3
 8000856:	bf22      	ittt	cs
 8000858:	1ab6      	subcs	r6, r6, r2
 800085a:	4675      	movcs	r5, lr
 800085c:	ea40 005c 	orrcs.w	r0, r0, ip, lsr #1
 8000860:	085b      	lsrs	r3, r3, #1
 8000862:	ea4f 0232 	mov.w	r2, r2, rrx
 8000866:	ebb6 0e02 	subs.w	lr, r6, r2
 800086a:	eb75 0e03 	sbcs.w	lr, r5, r3
 800086e:	bf22      	ittt	cs
 8000870:	1ab6      	subcs	r6, r6, r2
 8000872:	4675      	movcs	r5, lr
 8000874:	ea40 009c 	orrcs.w	r0, r0, ip, lsr #2
 8000878:	085b      	lsrs	r3, r3, #1
 800087a:	ea4f 0232 	mov.w	r2, r2, rrx
 800087e:	ebb6 0e02 	subs.w	lr, r6, r2
 8000882:	eb75 0e03 	sbcs.w	lr, r5, r3
 8000886:	bf22      	ittt	cs
 8000888:	1ab6      	subcs	r6, r6, r2
 800088a:	4675      	movcs	r5, lr
 800088c:	ea40 00dc 	orrcs.w	r0, r0, ip, lsr #3
 8000890:	ea55 0e06 	orrs.w	lr, r5, r6
 8000894:	d018      	beq.n	80008c8 <__aeabi_ddiv+0x114>
 8000896:	ea4f 1505 	mov.w	r5, r5, lsl #4
 800089a:	ea45 7516 	orr.w	r5, r5, r6, lsr #28
 800089e:	ea4f 1606 	mov.w	r6, r6, lsl #4
 80008a2:	ea4f 03c3 	mov.w	r3, r3, lsl #3
 80008a6:	ea43 7352 	orr.w	r3, r3, r2, lsr #29
 80008aa:	ea4f 02c2 	mov.w	r2, r2, lsl #3
 80008ae:	ea5f 1c1c 	movs.w	ip, ip, lsr #4
 80008b2:	d1c0      	bne.n	8000836 <__aeabi_ddiv+0x82>
 80008b4:	f411 1f80 	tst.w	r1, #1048576	; 0x100000
 80008b8:	d10b      	bne.n	80008d2 <__aeabi_ddiv+0x11e>
 80008ba:	ea41 0100 	orr.w	r1, r1, r0
 80008be:	f04f 0000 	mov.w	r0, #0
 80008c2:	f04f 4c00 	mov.w	ip, #2147483648	; 0x80000000
 80008c6:	e7b6      	b.n	8000836 <__aeabi_ddiv+0x82>
 80008c8:	f411 1f80 	tst.w	r1, #1048576	; 0x100000
 80008cc:	bf04      	itt	eq
 80008ce:	4301      	orreq	r1, r0
 80008d0:	2000      	moveq	r0, #0
 80008d2:	f1b4 0cfd 	subs.w	ip, r4, #253	; 0xfd
 80008d6:	bf88      	it	hi
 80008d8:	f5bc 6fe0 	cmphi.w	ip, #1792	; 0x700
 80008dc:	f63f aeaf 	bhi.w	800063e <__aeabi_dmul+0xde>
 80008e0:	ebb5 0c03 	subs.w	ip, r5, r3
 80008e4:	bf04      	itt	eq
 80008e6:	ebb6 0c02 	subseq.w	ip, r6, r2
 80008ea:	ea5f 0c50 	movseq.w	ip, r0, lsr #1
 80008ee:	f150 0000 	adcs.w	r0, r0, #0
 80008f2:	eb41 5104 	adc.w	r1, r1, r4, lsl #20
 80008f6:	bd70      	pop	{r4, r5, r6, pc}
 80008f8:	f00e 4e00 	and.w	lr, lr, #2147483648	; 0x80000000
 80008fc:	ea4e 3111 	orr.w	r1, lr, r1, lsr #12
 8000900:	eb14 045c 	adds.w	r4, r4, ip, lsr #1
 8000904:	bfc2      	ittt	gt
 8000906:	ebd4 050c 	rsbsgt	r5, r4, ip
 800090a:	ea41 5104 	orrgt.w	r1, r1, r4, lsl #20
 800090e:	bd70      	popgt	{r4, r5, r6, pc}
 8000910:	f441 1180 	orr.w	r1, r1, #1048576	; 0x100000
 8000914:	f04f 0e00 	mov.w	lr, #0
 8000918:	3c01      	subs	r4, #1
 800091a:	e690      	b.n	800063e <__aeabi_dmul+0xde>
 800091c:	ea45 0e06 	orr.w	lr, r5, r6
 8000920:	e68d      	b.n	800063e <__aeabi_dmul+0xde>
 8000922:	ea0c 5513 	and.w	r5, ip, r3, lsr #20
 8000926:	ea94 0f0c 	teq	r4, ip
 800092a:	bf08      	it	eq
 800092c:	ea95 0f0c 	teqeq	r5, ip
 8000930:	f43f af3b 	beq.w	80007aa <__aeabi_dmul+0x24a>
 8000934:	ea94 0f0c 	teq	r4, ip
 8000938:	d10a      	bne.n	8000950 <__aeabi_ddiv+0x19c>
 800093a:	ea50 3401 	orrs.w	r4, r0, r1, lsl #12
 800093e:	f47f af34 	bne.w	80007aa <__aeabi_dmul+0x24a>
 8000942:	ea95 0f0c 	teq	r5, ip
 8000946:	f47f af25 	bne.w	8000794 <__aeabi_dmul+0x234>
 800094a:	4610      	mov	r0, r2
 800094c:	4619      	mov	r1, r3
 800094e:	e72c      	b.n	80007aa <__aeabi_dmul+0x24a>
 8000950:	ea95 0f0c 	teq	r5, ip
 8000954:	d106      	bne.n	8000964 <__aeabi_ddiv+0x1b0>
 8000956:	ea52 3503 	orrs.w	r5, r2, r3, lsl #12
 800095a:	f43f aefd 	beq.w	8000758 <__aeabi_dmul+0x1f8>
 800095e:	4610      	mov	r0, r2
 8000960:	4619      	mov	r1, r3
 8000962:	e722      	b.n	80007aa <__aeabi_dmul+0x24a>
 8000964:	ea50 0641 	orrs.w	r6, r0, r1, lsl #1
 8000968:	bf18      	it	ne
 800096a:	ea52 0643 	orrsne.w	r6, r2, r3, lsl #1
 800096e:	f47f aec5 	bne.w	80006fc <__aeabi_dmul+0x19c>
 8000972:	ea50 0441 	orrs.w	r4, r0, r1, lsl #1
 8000976:	f47f af0d 	bne.w	8000794 <__aeabi_dmul+0x234>
 800097a:	ea52 0543 	orrs.w	r5, r2, r3, lsl #1
 800097e:	f47f aeeb 	bne.w	8000758 <__aeabi_dmul+0x1f8>
 8000982:	e712      	b.n	80007aa <__aeabi_dmul+0x24a>

08000984 <__gedf2>:
 8000984:	f04f 3cff 	mov.w	ip, #4294967295
 8000988:	e006      	b.n	8000998 <__cmpdf2+0x4>
 800098a:	bf00      	nop

0800098c <__ledf2>:
 800098c:	f04f 0c01 	mov.w	ip, #1
 8000990:	e002      	b.n	8000998 <__cmpdf2+0x4>
 8000992:	bf00      	nop

08000994 <__cmpdf2>:
 8000994:	f04f 0c01 	mov.w	ip, #1
 8000998:	f84d cd04 	str.w	ip, [sp, #-4]!
 800099c:	ea4f 0c41 	mov.w	ip, r1, lsl #1
 80009a0:	ea7f 5c6c 	mvns.w	ip, ip, asr #21
 80009a4:	ea4f 0c43 	mov.w	ip, r3, lsl #1
 80009a8:	bf18      	it	ne
 80009aa:	ea7f 5c6c 	mvnsne.w	ip, ip, asr #21
 80009ae:	d01b      	beq.n	80009e8 <__cmpdf2+0x54>
 80009b0:	b001      	add	sp, #4
 80009b2:	ea50 0c41 	orrs.w	ip, r0, r1, lsl #1
 80009b6:	bf0c      	ite	eq
 80009b8:	ea52 0c43 	orrseq.w	ip, r2, r3, lsl #1
 80009bc:	ea91 0f03 	teqne	r1, r3
 80009c0:	bf02      	ittt	eq
 80009c2:	ea90 0f02 	teqeq	r0, r2
 80009c6:	2000      	moveq	r0, #0
 80009c8:	4770      	bxeq	lr
 80009ca:	f110 0f00 	cmn.w	r0, #0
 80009ce:	ea91 0f03 	teq	r1, r3
 80009d2:	bf58      	it	pl
 80009d4:	4299      	cmppl	r1, r3
 80009d6:	bf08      	it	eq
 80009d8:	4290      	cmpeq	r0, r2
 80009da:	bf2c      	ite	cs
 80009dc:	17d8      	asrcs	r0, r3, #31
 80009de:	ea6f 70e3 	mvncc.w	r0, r3, asr #31
 80009e2:	f040 0001 	orr.w	r0, r0, #1
 80009e6:	4770      	bx	lr
 80009e8:	ea4f 0c41 	mov.w	ip, r1, lsl #1
 80009ec:	ea7f 5c6c 	mvns.w	ip, ip, asr #21
 80009f0:	d102      	bne.n	80009f8 <__cmpdf2+0x64>
 80009f2:	ea50 3c01 	orrs.w	ip, r0, r1, lsl #12
 80009f6:	d107      	bne.n	8000a08 <__cmpdf2+0x74>
 80009f8:	ea4f 0c43 	mov.w	ip, r3, lsl #1
 80009fc:	ea7f 5c6c 	mvns.w	ip, ip, asr #21
 8000a00:	d1d6      	bne.n	80009b0 <__cmpdf2+0x1c>
 8000a02:	ea52 3c03 	orrs.w	ip, r2, r3, lsl #12
 8000a06:	d0d3      	beq.n	80009b0 <__cmpdf2+0x1c>
 8000a08:	f85d 0b04 	ldr.w	r0, [sp], #4
 8000a0c:	4770      	bx	lr
 8000a0e:	bf00      	nop

08000a10 <__aeabi_cdrcmple>:
 8000a10:	4684      	mov	ip, r0
 8000a12:	4610      	mov	r0, r2
 8000a14:	4662      	mov	r2, ip
 8000a16:	468c      	mov	ip, r1
 8000a18:	4619      	mov	r1, r3
 8000a1a:	4663      	mov	r3, ip
 8000a1c:	e000      	b.n	8000a20 <__aeabi_cdcmpeq>
 8000a1e:	bf00      	nop

08000a20 <__aeabi_cdcmpeq>:
 8000a20:	b501      	push	{r0, lr}
 8000a22:	f7ff ffb7 	bl	8000994 <__cmpdf2>
 8000a26:	2800      	cmp	r0, #0
 8000a28:	bf48      	it	mi
 8000a2a:	f110 0f00 	cmnmi.w	r0, #0
 8000a2e:	bd01      	pop	{r0, pc}

08000a30 <__aeabi_dcmpeq>:
 8000a30:	f84d ed08 	str.w	lr, [sp, #-8]!
 8000a34:	f7ff fff4 	bl	8000a20 <__aeabi_cdcmpeq>
 8000a38:	bf0c      	ite	eq
 8000a3a:	2001      	moveq	r0, #1
 8000a3c:	2000      	movne	r0, #0
 8000a3e:	f85d fb08 	ldr.w	pc, [sp], #8
 8000a42:	bf00      	nop

08000a44 <__aeabi_dcmplt>:
 8000a44:	f84d ed08 	str.w	lr, [sp, #-8]!
 8000a48:	f7ff ffea 	bl	8000a20 <__aeabi_cdcmpeq>
 8000a4c:	bf34      	ite	cc
 8000a4e:	2001      	movcc	r0, #1
 8000a50:	2000      	movcs	r0, #0
 8000a52:	f85d fb08 	ldr.w	pc, [sp], #8
 8000a56:	bf00      	nop

08000a58 <__aeabi_dcmple>:
 8000a58:	f84d ed08 	str.w	lr, [sp, #-8]!
 8000a5c:	f7ff ffe0 	bl	8000a20 <__aeabi_cdcmpeq>
 8000a60:	bf94      	ite	ls
 8000a62:	2001      	movls	r0, #1
 8000a64:	2000      	movhi	r0, #0
 8000a66:	f85d fb08 	ldr.w	pc, [sp], #8
 8000a6a:	bf00      	nop

08000a6c <__aeabi_dcmpge>:
 8000a6c:	f84d ed08 	str.w	lr, [sp, #-8]!
 8000a70:	f7ff ffce 	bl	8000a10 <__aeabi_cdrcmple>
 8000a74:	bf94      	ite	ls
 8000a76:	2001      	movls	r0, #1
 8000a78:	2000      	movhi	r0, #0
 8000a7a:	f85d fb08 	ldr.w	pc, [sp], #8
 8000a7e:	bf00      	nop

08000a80 <__aeabi_dcmpgt>:
 8000a80:	f84d ed08 	str.w	lr, [sp, #-8]!
 8000a84:	f7ff ffc4 	bl	8000a10 <__aeabi_cdrcmple>
 8000a88:	bf34      	ite	cc
 8000a8a:	2001      	movcc	r0, #1
 8000a8c:	2000      	movcs	r0, #0
 8000a8e:	f85d fb08 	ldr.w	pc, [sp], #8
 8000a92:	bf00      	nop

08000a94 <__aeabi_dcmpun>:
 8000a94:	ea4f 0c41 	mov.w	ip, r1, lsl #1
 8000a98:	ea7f 5c6c 	mvns.w	ip, ip, asr #21
 8000a9c:	d102      	bne.n	8000aa4 <__aeabi_dcmpun+0x10>
 8000a9e:	ea50 3c01 	orrs.w	ip, r0, r1, lsl #12
 8000aa2:	d10a      	bne.n	8000aba <__aeabi_dcmpun+0x26>
 8000aa4:	ea4f 0c43 	mov.w	ip, r3, lsl #1
 8000aa8:	ea7f 5c6c 	mvns.w	ip, ip, asr #21
 8000aac:	d102      	bne.n	8000ab4 <__aeabi_dcmpun+0x20>
 8000aae:	ea52 3c03 	orrs.w	ip, r2, r3, lsl #12
 8000ab2:	d102      	bne.n	8000aba <__aeabi_dcmpun+0x26>
 8000ab4:	f04f 0000 	mov.w	r0, #0
 8000ab8:	4770      	bx	lr
 8000aba:	f04f 0001 	mov.w	r0, #1
 8000abe:	4770      	bx	lr

08000ac0 <__aeabi_d2iz>:
 8000ac0:	ea4f 0241 	mov.w	r2, r1, lsl #1
 8000ac4:	f512 1200 	adds.w	r2, r2, #2097152	; 0x200000
 8000ac8:	d215      	bcs.n	8000af6 <__aeabi_d2iz+0x36>
 8000aca:	d511      	bpl.n	8000af0 <__aeabi_d2iz+0x30>
 8000acc:	f46f 7378 	mvn.w	r3, #992	; 0x3e0
 8000ad0:	ebb3 5262 	subs.w	r2, r3, r2, asr #21
 8000ad4:	d912      	bls.n	8000afc <__aeabi_d2iz+0x3c>
 8000ad6:	ea4f 23c1 	mov.w	r3, r1, lsl #11
 8000ada:	f043 4300 	orr.w	r3, r3, #2147483648	; 0x80000000
 8000ade:	ea43 5350 	orr.w	r3, r3, r0, lsr #21
 8000ae2:	f011 4f00 	tst.w	r1, #2147483648	; 0x80000000
 8000ae6:	fa23 f002 	lsr.w	r0, r3, r2
 8000aea:	bf18      	it	ne
 8000aec:	4240      	negne	r0, r0
 8000aee:	4770      	bx	lr
 8000af0:	f04f 0000 	mov.w	r0, #0
 8000af4:	4770      	bx	lr
 8000af6:	ea50 3001 	orrs.w	r0, r0, r1, lsl #12
 8000afa:	d105      	bne.n	8000b08 <__aeabi_d2iz+0x48>
 8000afc:	f011 4000 	ands.w	r0, r1, #2147483648	; 0x80000000
 8000b00:	bf08      	it	eq
 8000b02:	f06f 4000 	mvneq.w	r0, #2147483648	; 0x80000000
 8000b06:	4770      	bx	lr
 8000b08:	f04f 0000 	mov.w	r0, #0
 8000b0c:	4770      	bx	lr
 8000b0e:	bf00      	nop

08000b10 <__aeabi_uldivmod>:
 8000b10:	b953      	cbnz	r3, 8000b28 <__aeabi_uldivmod+0x18>
 8000b12:	b94a      	cbnz	r2, 8000b28 <__aeabi_uldivmod+0x18>
 8000b14:	2900      	cmp	r1, #0
 8000b16:	bf08      	it	eq
 8000b18:	2800      	cmpeq	r0, #0
 8000b1a:	bf1c      	itt	ne
 8000b1c:	f04f 31ff 	movne.w	r1, #4294967295
 8000b20:	f04f 30ff 	movne.w	r0, #4294967295
 8000b24:	f000 b972 	b.w	8000e0c <__aeabi_idiv0>
 8000b28:	f1ad 0c08 	sub.w	ip, sp, #8
 8000b2c:	e96d ce04 	strd	ip, lr, [sp, #-16]!
 8000b30:	f000 f806 	bl	8000b40 <__udivmoddi4>
 8000b34:	f8dd e004 	ldr.w	lr, [sp, #4]
 8000b38:	e9dd 2302 	ldrd	r2, r3, [sp, #8]
 8000b3c:	b004      	add	sp, #16
 8000b3e:	4770      	bx	lr

08000b40 <__udivmoddi4>:
 8000b40:	e92d 47f0 	stmdb	sp!, {r4, r5, r6, r7, r8, r9, sl, lr}
 8000b44:	9e08      	ldr	r6, [sp, #32]
 8000b46:	4604      	mov	r4, r0
 8000b48:	4688      	mov	r8, r1
 8000b4a:	2b00      	cmp	r3, #0
 8000b4c:	d14b      	bne.n	8000be6 <__udivmoddi4+0xa6>
 8000b4e:	428a      	cmp	r2, r1
 8000b50:	4615      	mov	r5, r2
 8000b52:	d967      	bls.n	8000c24 <__udivmoddi4+0xe4>
 8000b54:	fab2 f282 	clz	r2, r2
 8000b58:	b14a      	cbz	r2, 8000b6e <__udivmoddi4+0x2e>
 8000b5a:	f1c2 0720 	rsb	r7, r2, #32
 8000b5e:	fa01 f302 	lsl.w	r3, r1, r2
 8000b62:	fa20 f707 	lsr.w	r7, r0, r7
 8000b66:	4095      	lsls	r5, r2
 8000b68:	ea47 0803 	orr.w	r8, r7, r3
 8000b6c:	4094      	lsls	r4, r2
 8000b6e:	ea4f 4e15 	mov.w	lr, r5, lsr #16
 8000b72:	0c23      	lsrs	r3, r4, #16
 8000b74:	fbb8 f7fe 	udiv	r7, r8, lr
 8000b78:	fa1f fc85 	uxth.w	ip, r5
 8000b7c:	fb0e 8817 	mls	r8, lr, r7, r8
 8000b80:	ea43 4308 	orr.w	r3, r3, r8, lsl #16
 8000b84:	fb07 f10c 	mul.w	r1, r7, ip
 8000b88:	4299      	cmp	r1, r3
 8000b8a:	d909      	bls.n	8000ba0 <__udivmoddi4+0x60>
 8000b8c:	18eb      	adds	r3, r5, r3
 8000b8e:	f107 30ff 	add.w	r0, r7, #4294967295
 8000b92:	f080 811b 	bcs.w	8000dcc <__udivmoddi4+0x28c>
 8000b96:	4299      	cmp	r1, r3
 8000b98:	f240 8118 	bls.w	8000dcc <__udivmoddi4+0x28c>
 8000b9c:	3f02      	subs	r7, #2
 8000b9e:	442b      	add	r3, r5
 8000ba0:	1a5b      	subs	r3, r3, r1
 8000ba2:	b2a4      	uxth	r4, r4
 8000ba4:	fbb3 f0fe 	udiv	r0, r3, lr
 8000ba8:	fb0e 3310 	mls	r3, lr, r0, r3
 8000bac:	ea44 4403 	orr.w	r4, r4, r3, lsl #16
 8000bb0:	fb00 fc0c 	mul.w	ip, r0, ip
 8000bb4:	45a4      	cmp	ip, r4
 8000bb6:	d909      	bls.n	8000bcc <__udivmoddi4+0x8c>
 8000bb8:	192c      	adds	r4, r5, r4
 8000bba:	f100 33ff 	add.w	r3, r0, #4294967295
 8000bbe:	f080 8107 	bcs.w	8000dd0 <__udivmoddi4+0x290>
 8000bc2:	45a4      	cmp	ip, r4
 8000bc4:	f240 8104 	bls.w	8000dd0 <__udivmoddi4+0x290>
 8000bc8:	3802      	subs	r0, #2
 8000bca:	442c      	add	r4, r5
 8000bcc:	ea40 4007 	orr.w	r0, r0, r7, lsl #16
 8000bd0:	eba4 040c 	sub.w	r4, r4, ip
 8000bd4:	2700      	movs	r7, #0
 8000bd6:	b11e      	cbz	r6, 8000be0 <__udivmoddi4+0xa0>
 8000bd8:	40d4      	lsrs	r4, r2
 8000bda:	2300      	movs	r3, #0
 8000bdc:	e9c6 4300 	strd	r4, r3, [r6]
 8000be0:	4639      	mov	r1, r7
 8000be2:	e8bd 87f0 	ldmia.w	sp!, {r4, r5, r6, r7, r8, r9, sl, pc}
 8000be6:	428b      	cmp	r3, r1
 8000be8:	d909      	bls.n	8000bfe <__udivmoddi4+0xbe>
 8000bea:	2e00      	cmp	r6, #0
 8000bec:	f000 80eb 	beq.w	8000dc6 <__udivmoddi4+0x286>
 8000bf0:	2700      	movs	r7, #0
 8000bf2:	e9c6 0100 	strd	r0, r1, [r6]
 8000bf6:	4638      	mov	r0, r7
 8000bf8:	4639      	mov	r1, r7
 8000bfa:	e8bd 87f0 	ldmia.w	sp!, {r4, r5, r6, r7, r8, r9, sl, pc}
 8000bfe:	fab3 f783 	clz	r7, r3
 8000c02:	2f00      	cmp	r7, #0
 8000c04:	d147      	bne.n	8000c96 <__udivmoddi4+0x156>
 8000c06:	428b      	cmp	r3, r1
 8000c08:	d302      	bcc.n	8000c10 <__udivmoddi4+0xd0>
 8000c0a:	4282      	cmp	r2, r0
 8000c0c:	f200 80fa 	bhi.w	8000e04 <__udivmoddi4+0x2c4>
 8000c10:	1a84      	subs	r4, r0, r2
 8000c12:	eb61 0303 	sbc.w	r3, r1, r3
 8000c16:	2001      	movs	r0, #1
 8000c18:	4698      	mov	r8, r3
 8000c1a:	2e00      	cmp	r6, #0
 8000c1c:	d0e0      	beq.n	8000be0 <__udivmoddi4+0xa0>
 8000c1e:	e9c6 4800 	strd	r4, r8, [r6]
 8000c22:	e7dd      	b.n	8000be0 <__udivmoddi4+0xa0>
 8000c24:	b902      	cbnz	r2, 8000c28 <__udivmoddi4+0xe8>
 8000c26:	deff      	udf	#255	; 0xff
 8000c28:	fab2 f282 	clz	r2, r2
 8000c2c:	2a00      	cmp	r2, #0
 8000c2e:	f040 808f 	bne.w	8000d50 <__udivmoddi4+0x210>
 8000c32:	1b49      	subs	r1, r1, r5
 8000c34:	ea4f 4e15 	mov.w	lr, r5, lsr #16
 8000c38:	fa1f f885 	uxth.w	r8, r5
 8000c3c:	2701      	movs	r7, #1
 8000c3e:	fbb1 fcfe 	udiv	ip, r1, lr
 8000c42:	0c23      	lsrs	r3, r4, #16
 8000c44:	fb0e 111c 	mls	r1, lr, ip, r1
 8000c48:	ea43 4301 	orr.w	r3, r3, r1, lsl #16
 8000c4c:	fb08 f10c 	mul.w	r1, r8, ip
 8000c50:	4299      	cmp	r1, r3
 8000c52:	d907      	bls.n	8000c64 <__udivmoddi4+0x124>
 8000c54:	18eb      	adds	r3, r5, r3
 8000c56:	f10c 30ff 	add.w	r0, ip, #4294967295
 8000c5a:	d202      	bcs.n	8000c62 <__udivmoddi4+0x122>
 8000c5c:	4299      	cmp	r1, r3
 8000c5e:	f200 80cd 	bhi.w	8000dfc <__udivmoddi4+0x2bc>
 8000c62:	4684      	mov	ip, r0
 8000c64:	1a59      	subs	r1, r3, r1
 8000c66:	b2a3      	uxth	r3, r4
 8000c68:	fbb1 f0fe 	udiv	r0, r1, lr
 8000c6c:	fb0e 1410 	mls	r4, lr, r0, r1
 8000c70:	ea43 4404 	orr.w	r4, r3, r4, lsl #16
 8000c74:	fb08 f800 	mul.w	r8, r8, r0
 8000c78:	45a0      	cmp	r8, r4
 8000c7a:	d907      	bls.n	8000c8c <__udivmoddi4+0x14c>
 8000c7c:	192c      	adds	r4, r5, r4
 8000c7e:	f100 33ff 	add.w	r3, r0, #4294967295
 8000c82:	d202      	bcs.n	8000c8a <__udivmoddi4+0x14a>
 8000c84:	45a0      	cmp	r8, r4
 8000c86:	f200 80b6 	bhi.w	8000df6 <__udivmoddi4+0x2b6>
 8000c8a:	4618      	mov	r0, r3
 8000c8c:	eba4 0408 	sub.w	r4, r4, r8
 8000c90:	ea40 400c 	orr.w	r0, r0, ip, lsl #16
 8000c94:	e79f      	b.n	8000bd6 <__udivmoddi4+0x96>
 8000c96:	f1c7 0c20 	rsb	ip, r7, #32
 8000c9a:	40bb      	lsls	r3, r7
 8000c9c:	fa22 fe0c 	lsr.w	lr, r2, ip
 8000ca0:	ea4e 0e03 	orr.w	lr, lr, r3
 8000ca4:	fa01 f407 	lsl.w	r4, r1, r7
 8000ca8:	fa20 f50c 	lsr.w	r5, r0, ip
 8000cac:	fa21 f30c 	lsr.w	r3, r1, ip
 8000cb0:	ea4f 481e 	mov.w	r8, lr, lsr #16
 8000cb4:	4325      	orrs	r5, r4
 8000cb6:	fbb3 f9f8 	udiv	r9, r3, r8
 8000cba:	0c2c      	lsrs	r4, r5, #16
 8000cbc:	fb08 3319 	mls	r3, r8, r9, r3
 8000cc0:	fa1f fa8e 	uxth.w	sl, lr
 8000cc4:	ea44 4303 	orr.w	r3, r4, r3, lsl #16
 8000cc8:	fb09 f40a 	mul.w	r4, r9, sl
 8000ccc:	429c      	cmp	r4, r3
 8000cce:	fa02 f207 	lsl.w	r2, r2, r7
 8000cd2:	fa00 f107 	lsl.w	r1, r0, r7
 8000cd6:	d90b      	bls.n	8000cf0 <__udivmoddi4+0x1b0>
 8000cd8:	eb1e 0303 	adds.w	r3, lr, r3
 8000cdc:	f109 30ff 	add.w	r0, r9, #4294967295
 8000ce0:	f080 8087 	bcs.w	8000df2 <__udivmoddi4+0x2b2>
 8000ce4:	429c      	cmp	r4, r3
 8000ce6:	f240 8084 	bls.w	8000df2 <__udivmoddi4+0x2b2>
 8000cea:	f1a9 0902 	sub.w	r9, r9, #2
 8000cee:	4473      	add	r3, lr
 8000cf0:	1b1b      	subs	r3, r3, r4
 8000cf2:	b2ad      	uxth	r5, r5
 8000cf4:	fbb3 f0f8 	udiv	r0, r3, r8
 8000cf8:	fb08 3310 	mls	r3, r8, r0, r3
 8000cfc:	ea45 4403 	orr.w	r4, r5, r3, lsl #16
 8000d00:	fb00 fa0a 	mul.w	sl, r0, sl
 8000d04:	45a2      	cmp	sl, r4
 8000d06:	d908      	bls.n	8000d1a <__udivmoddi4+0x1da>
 8000d08:	eb1e 0404 	adds.w	r4, lr, r4
 8000d0c:	f100 33ff 	add.w	r3, r0, #4294967295
 8000d10:	d26b      	bcs.n	8000dea <__udivmoddi4+0x2aa>
 8000d12:	45a2      	cmp	sl, r4
 8000d14:	d969      	bls.n	8000dea <__udivmoddi4+0x2aa>
 8000d16:	3802      	subs	r0, #2
 8000d18:	4474      	add	r4, lr
 8000d1a:	ea40 4009 	orr.w	r0, r0, r9, lsl #16
 8000d1e:	fba0 8902 	umull	r8, r9, r0, r2
 8000d22:	eba4 040a 	sub.w	r4, r4, sl
 8000d26:	454c      	cmp	r4, r9
 8000d28:	46c2      	mov	sl, r8
 8000d2a:	464b      	mov	r3, r9
 8000d2c:	d354      	bcc.n	8000dd8 <__udivmoddi4+0x298>
 8000d2e:	d051      	beq.n	8000dd4 <__udivmoddi4+0x294>
 8000d30:	2e00      	cmp	r6, #0
 8000d32:	d069      	beq.n	8000e08 <__udivmoddi4+0x2c8>
 8000d34:	ebb1 050a 	subs.w	r5, r1, sl
 8000d38:	eb64 0403 	sbc.w	r4, r4, r3
 8000d3c:	fa04 fc0c 	lsl.w	ip, r4, ip
 8000d40:	40fd      	lsrs	r5, r7
 8000d42:	40fc      	lsrs	r4, r7
 8000d44:	ea4c 0505 	orr.w	r5, ip, r5
 8000d48:	e9c6 5400 	strd	r5, r4, [r6]
 8000d4c:	2700      	movs	r7, #0
 8000d4e:	e747      	b.n	8000be0 <__udivmoddi4+0xa0>
 8000d50:	f1c2 0320 	rsb	r3, r2, #32
 8000d54:	fa20 f703 	lsr.w	r7, r0, r3
 8000d58:	4095      	lsls	r5, r2
 8000d5a:	fa01 f002 	lsl.w	r0, r1, r2
 8000d5e:	fa21 f303 	lsr.w	r3, r1, r3
 8000d62:	ea4f 4e15 	mov.w	lr, r5, lsr #16
 8000d66:	4338      	orrs	r0, r7
 8000d68:	0c01      	lsrs	r1, r0, #16
 8000d6a:	fbb3 f7fe 	udiv	r7, r3, lr
 8000d6e:	fa1f f885 	uxth.w	r8, r5
 8000d72:	fb0e 3317 	mls	r3, lr, r7, r3
 8000d76:	ea41 4103 	orr.w	r1, r1, r3, lsl #16
 8000d7a:	fb07 f308 	mul.w	r3, r7, r8
 8000d7e:	428b      	cmp	r3, r1
 8000d80:	fa04 f402 	lsl.w	r4, r4, r2
 8000d84:	d907      	bls.n	8000d96 <__udivmoddi4+0x256>
 8000d86:	1869      	adds	r1, r5, r1
 8000d88:	f107 3cff 	add.w	ip, r7, #4294967295
 8000d8c:	d22f      	bcs.n	8000dee <__udivmoddi4+0x2ae>
 8000d8e:	428b      	cmp	r3, r1
 8000d90:	d92d      	bls.n	8000dee <__udivmoddi4+0x2ae>
 8000d92:	3f02      	subs	r7, #2
 8000d94:	4429      	add	r1, r5
 8000d96:	1acb      	subs	r3, r1, r3
 8000d98:	b281      	uxth	r1, r0
 8000d9a:	fbb3 f0fe 	udiv	r0, r3, lr
 8000d9e:	fb0e 3310 	mls	r3, lr, r0, r3
 8000da2:	ea41 4103 	orr.w	r1, r1, r3, lsl #16
 8000da6:	fb00 f308 	mul.w	r3, r0, r8
 8000daa:	428b      	cmp	r3, r1
 8000dac:	d907      	bls.n	8000dbe <__udivmoddi4+0x27e>
 8000dae:	1869      	adds	r1, r5, r1
 8000db0:	f100 3cff 	add.w	ip, r0, #4294967295
 8000db4:	d217      	bcs.n	8000de6 <__udivmoddi4+0x2a6>
 8000db6:	428b      	cmp	r3, r1
 8000db8:	d915      	bls.n	8000de6 <__udivmoddi4+0x2a6>
 8000dba:	3802      	subs	r0, #2
 8000dbc:	4429      	add	r1, r5
 8000dbe:	1ac9      	subs	r1, r1, r3
 8000dc0:	ea40 4707 	orr.w	r7, r0, r7, lsl #16
 8000dc4:	e73b      	b.n	8000c3e <__udivmoddi4+0xfe>
 8000dc6:	4637      	mov	r7, r6
 8000dc8:	4630      	mov	r0, r6
 8000dca:	e709      	b.n	8000be0 <__udivmoddi4+0xa0>
 8000dcc:	4607      	mov	r7, r0
 8000dce:	e6e7      	b.n	8000ba0 <__udivmoddi4+0x60>
 8000dd0:	4618      	mov	r0, r3
 8000dd2:	e6fb      	b.n	8000bcc <__udivmoddi4+0x8c>
 8000dd4:	4541      	cmp	r1, r8
 8000dd6:	d2ab      	bcs.n	8000d30 <__udivmoddi4+0x1f0>
 8000dd8:	ebb8 0a02 	subs.w	sl, r8, r2
 8000ddc:	eb69 020e 	sbc.w	r2, r9, lr
 8000de0:	3801      	subs	r0, #1
 8000de2:	4613      	mov	r3, r2
 8000de4:	e7a4      	b.n	8000d30 <__udivmoddi4+0x1f0>
 8000de6:	4660      	mov	r0, ip
 8000de8:	e7e9      	b.n	8000dbe <__udivmoddi4+0x27e>
 8000dea:	4618      	mov	r0, r3
 8000dec:	e795      	b.n	8000d1a <__udivmoddi4+0x1da>
 8000dee:	4667      	mov	r7, ip
 8000df0:	e7d1      	b.n	8000d96 <__udivmoddi4+0x256>
 8000df2:	4681      	mov	r9, r0
 8000df4:	e77c      	b.n	8000cf0 <__udivmoddi4+0x1b0>
 8000df6:	3802      	subs	r0, #2
 8000df8:	442c      	add	r4, r5
 8000dfa:	e747      	b.n	8000c8c <__udivmoddi4+0x14c>
 8000dfc:	f1ac 0c02 	sub.w	ip, ip, #2
 8000e00:	442b      	add	r3, r5
 8000e02:	e72f      	b.n	8000c64 <__udivmoddi4+0x124>
 8000e04:	4638      	mov	r0, r7
 8000e06:	e708      	b.n	8000c1a <__udivmoddi4+0xda>
 8000e08:	4637      	mov	r7, r6
 8000e0a:	e6e9      	b.n	8000be0 <__udivmoddi4+0xa0>

08000e0c <__aeabi_idiv0>:
 8000e0c:	4770      	bx	lr
 8000e0e:	bf00      	nop

08000e10 <SPI_TxByte>:
 8000e10:	b507      	push	{r0, r1, r2, lr}
 8000e12:	f88d 0007 	strb.w	r0, [sp, #7]
 8000e16:	4808      	ldr	r0, [pc, #32]	; (8000e38 <SPI_TxByte+0x28>)
 8000e18:	f002 fa45 	bl	80032a6 <HAL_SPI_GetState>
 8000e1c:	2801      	cmp	r0, #1
 8000e1e:	4602      	mov	r2, r0
 8000e20:	d1f9      	bne.n	8000e16 <SPI_TxByte+0x6>
 8000e22:	f44f 737a 	mov.w	r3, #1000	; 0x3e8
 8000e26:	f10d 0107 	add.w	r1, sp, #7
 8000e2a:	4803      	ldr	r0, [pc, #12]	; (8000e38 <SPI_TxByte+0x28>)
 8000e2c:	f002 f8a3 	bl	8002f76 <HAL_SPI_Transmit>
 8000e30:	b003      	add	sp, #12
 8000e32:	f85d fb04 	ldr.w	pc, [sp], #4
 8000e36:	bf00      	nop
 8000e38:	2000c008 	.word	0x2000c008

08000e3c <SELECT>:
 8000e3c:	2200      	movs	r2, #0
 8000e3e:	2101      	movs	r1, #1
 8000e40:	4801      	ldr	r0, [pc, #4]	; (8000e48 <SELECT+0xc>)
 8000e42:	f001 bd7f 	b.w	8002944 <HAL_GPIO_WritePin>
 8000e46:	bf00      	nop
 8000e48:	40020400 	.word	0x40020400

08000e4c <DESELECT>:
 8000e4c:	2201      	movs	r2, #1
 8000e4e:	4611      	mov	r1, r2
 8000e50:	4801      	ldr	r0, [pc, #4]	; (8000e58 <DESELECT+0xc>)
 8000e52:	f001 bd77 	b.w	8002944 <HAL_GPIO_WritePin>
 8000e56:	bf00      	nop
 8000e58:	40020400 	.word	0x40020400

08000e5c <SPI_RxByte>:
 8000e5c:	b51f      	push	{r0, r1, r2, r3, r4, lr}
 8000e5e:	23ff      	movs	r3, #255	; 0xff
 8000e60:	f88d 300e 	strb.w	r3, [sp, #14]
 8000e64:	2300      	movs	r3, #0
 8000e66:	f88d 300f 	strb.w	r3, [sp, #15]
 8000e6a:	480a      	ldr	r0, [pc, #40]	; (8000e94 <SPI_RxByte+0x38>)
 8000e6c:	f002 fa1b 	bl	80032a6 <HAL_SPI_GetState>
 8000e70:	2801      	cmp	r0, #1
 8000e72:	4603      	mov	r3, r0
 8000e74:	d1f9      	bne.n	8000e6a <SPI_RxByte+0xe>
 8000e76:	f44f 727a 	mov.w	r2, #1000	; 0x3e8
 8000e7a:	9200      	str	r2, [sp, #0]
 8000e7c:	f10d 010e 	add.w	r1, sp, #14
 8000e80:	f10d 020f 	add.w	r2, sp, #15
 8000e84:	4803      	ldr	r0, [pc, #12]	; (8000e94 <SPI_RxByte+0x38>)
 8000e86:	f002 f91e 	bl	80030c6 <HAL_SPI_TransmitReceive>
 8000e8a:	f89d 000f 	ldrb.w	r0, [sp, #15]
 8000e8e:	b005      	add	sp, #20
 8000e90:	f85d fb04 	ldr.w	pc, [sp], #4
 8000e94:	2000c008 	.word	0x2000c008

08000e98 <SD_PowerOn>:
 8000e98:	b513      	push	{r0, r1, r4, lr}
 8000e9a:	f7ff ffd7 	bl	8000e4c <DESELECT>
 8000e9e:	240a      	movs	r4, #10
 8000ea0:	20ff      	movs	r0, #255	; 0xff
 8000ea2:	f7ff ffb5 	bl	8000e10 <SPI_TxByte>
 8000ea6:	3c01      	subs	r4, #1
 8000ea8:	d1fa      	bne.n	8000ea0 <SD_PowerOn+0x8>
 8000eaa:	f7ff ffc7 	bl	8000e3c <SELECT>
 8000eae:	2340      	movs	r3, #64	; 0x40
 8000eb0:	9300      	str	r3, [sp, #0]
 8000eb2:	f44f 4315 	mov.w	r3, #38144	; 0x9500
 8000eb6:	f8ad 3004 	strh.w	r3, [sp, #4]
 8000eba:	f81d 0004 	ldrb.w	r0, [sp, r4]
 8000ebe:	3401      	adds	r4, #1
 8000ec0:	f7ff ffa6 	bl	8000e10 <SPI_TxByte>
 8000ec4:	2c06      	cmp	r4, #6
 8000ec6:	d1f8      	bne.n	8000eba <SD_PowerOn+0x22>
 8000ec8:	f44f 5400 	mov.w	r4, #8192	; 0x2000
 8000ecc:	f7ff ffc6 	bl	8000e5c <SPI_RxByte>
 8000ed0:	2801      	cmp	r0, #1
 8000ed2:	d001      	beq.n	8000ed8 <SD_PowerOn+0x40>
 8000ed4:	3c01      	subs	r4, #1
 8000ed6:	d1f9      	bne.n	8000ecc <SD_PowerOn+0x34>
 8000ed8:	f7ff ffb8 	bl	8000e4c <DESELECT>
 8000edc:	20ff      	movs	r0, #255	; 0xff
 8000ede:	f7ff ff97 	bl	8000e10 <SPI_TxByte>
 8000ee2:	4b02      	ldr	r3, [pc, #8]	; (8000eec <SD_PowerOn+0x54>)
 8000ee4:	2201      	movs	r2, #1
 8000ee6:	701a      	strb	r2, [r3, #0]
 8000ee8:	b002      	add	sp, #8
 8000eea:	bd10      	pop	{r4, pc}
 8000eec:	200000ad 	.word	0x200000ad

08000ef0 <SD_ReadyWait>:
 8000ef0:	b510      	push	{r4, lr}
 8000ef2:	4c06      	ldr	r4, [pc, #24]	; (8000f0c <SD_ReadyWait+0x1c>)
 8000ef4:	2332      	movs	r3, #50	; 0x32
 8000ef6:	7023      	strb	r3, [r4, #0]
 8000ef8:	f7ff ffb0 	bl	8000e5c <SPI_RxByte>
 8000efc:	f7ff ffae 	bl	8000e5c <SPI_RxByte>
 8000f00:	28ff      	cmp	r0, #255	; 0xff
 8000f02:	d002      	beq.n	8000f0a <SD_ReadyWait+0x1a>
 8000f04:	7823      	ldrb	r3, [r4, #0]
 8000f06:	2b00      	cmp	r3, #0
 8000f08:	d1f8      	bne.n	8000efc <SD_ReadyWait+0xc>
 8000f0a:	bd10      	pop	{r4, pc}
 8000f0c:	2000c060 	.word	0x2000c060

08000f10 <SD_TxDataBlock>:
 8000f10:	b570      	push	{r4, r5, r6, lr}
 8000f12:	4605      	mov	r5, r0
 8000f14:	460e      	mov	r6, r1
 8000f16:	f7ff ffeb 	bl	8000ef0 <SD_ReadyWait>
 8000f1a:	28ff      	cmp	r0, #255	; 0xff
 8000f1c:	d12c      	bne.n	8000f78 <SD_TxDataBlock+0x68>
 8000f1e:	4630      	mov	r0, r6
 8000f20:	f7ff ff76 	bl	8000e10 <SPI_TxByte>
 8000f24:	2efd      	cmp	r6, #253	; 0xfd
 8000f26:	d021      	beq.n	8000f6c <SD_TxDataBlock+0x5c>
 8000f28:	1cac      	adds	r4, r5, #2
 8000f2a:	f205 2502 	addw	r5, r5, #514	; 0x202
 8000f2e:	f814 0c02 	ldrb.w	r0, [r4, #-2]
 8000f32:	f7ff ff6d 	bl	8000e10 <SPI_TxByte>
 8000f36:	3402      	adds	r4, #2
 8000f38:	f814 0c03 	ldrb.w	r0, [r4, #-3]
 8000f3c:	f7ff ff68 	bl	8000e10 <SPI_TxByte>
 8000f40:	42ac      	cmp	r4, r5
 8000f42:	d1f4      	bne.n	8000f2e <SD_TxDataBlock+0x1e>
 8000f44:	f7ff ff8a 	bl	8000e5c <SPI_RxByte>
 8000f48:	f7ff ff88 	bl	8000e5c <SPI_RxByte>
 8000f4c:	2541      	movs	r5, #65	; 0x41
 8000f4e:	f7ff ff85 	bl	8000e5c <SPI_RxByte>
 8000f52:	f000 031f 	and.w	r3, r0, #31
 8000f56:	2b05      	cmp	r3, #5
 8000f58:	4604      	mov	r4, r0
 8000f5a:	d003      	beq.n	8000f64 <SD_TxDataBlock+0x54>
 8000f5c:	3d01      	subs	r5, #1
 8000f5e:	f015 05ff 	ands.w	r5, r5, #255	; 0xff
 8000f62:	d1f4      	bne.n	8000f4e <SD_TxDataBlock+0x3e>
 8000f64:	f7ff ff7a 	bl	8000e5c <SPI_RxByte>
 8000f68:	2800      	cmp	r0, #0
 8000f6a:	d0fb      	beq.n	8000f64 <SD_TxDataBlock+0x54>
 8000f6c:	f004 001f 	and.w	r0, r4, #31
 8000f70:	1f43      	subs	r3, r0, #5
 8000f72:	4258      	negs	r0, r3
 8000f74:	4158      	adcs	r0, r3
 8000f76:	bd70      	pop	{r4, r5, r6, pc}
 8000f78:	2000      	movs	r0, #0
 8000f7a:	e7fc      	b.n	8000f76 <SD_TxDataBlock+0x66>

08000f7c <SD_SendCmd>:
 8000f7c:	b538      	push	{r3, r4, r5, lr}
 8000f7e:	4604      	mov	r4, r0
 8000f80:	460d      	mov	r5, r1
 8000f82:	f7ff ffb5 	bl	8000ef0 <SD_ReadyWait>
 8000f86:	28ff      	cmp	r0, #255	; 0xff
 8000f88:	d128      	bne.n	8000fdc <SD_SendCmd+0x60>
 8000f8a:	4620      	mov	r0, r4
 8000f8c:	f7ff ff40 	bl	8000e10 <SPI_TxByte>
 8000f90:	0e28      	lsrs	r0, r5, #24
 8000f92:	f7ff ff3d 	bl	8000e10 <SPI_TxByte>
 8000f96:	f3c5 4007 	ubfx	r0, r5, #16, #8
 8000f9a:	f7ff ff39 	bl	8000e10 <SPI_TxByte>
 8000f9e:	f3c5 2007 	ubfx	r0, r5, #8, #8
 8000fa2:	f7ff ff35 	bl	8000e10 <SPI_TxByte>
 8000fa6:	b2e8      	uxtb	r0, r5
 8000fa8:	f7ff ff32 	bl	8000e10 <SPI_TxByte>
 8000fac:	2c40      	cmp	r4, #64	; 0x40
 8000fae:	d013      	beq.n	8000fd8 <SD_SendCmd+0x5c>
 8000fb0:	2c48      	cmp	r4, #72	; 0x48
 8000fb2:	bf14      	ite	ne
 8000fb4:	2000      	movne	r0, #0
 8000fb6:	2087      	moveq	r0, #135	; 0x87
 8000fb8:	f7ff ff2a 	bl	8000e10 <SPI_TxByte>
 8000fbc:	2c4c      	cmp	r4, #76	; 0x4c
 8000fbe:	d101      	bne.n	8000fc4 <SD_SendCmd+0x48>
 8000fc0:	f7ff ff4c 	bl	8000e5c <SPI_RxByte>
 8000fc4:	240a      	movs	r4, #10
 8000fc6:	f7ff ff49 	bl	8000e5c <SPI_RxByte>
 8000fca:	0603      	lsls	r3, r0, #24
 8000fcc:	d503      	bpl.n	8000fd6 <SD_SendCmd+0x5a>
 8000fce:	3c01      	subs	r4, #1
 8000fd0:	f014 04ff 	ands.w	r4, r4, #255	; 0xff
 8000fd4:	d1f7      	bne.n	8000fc6 <SD_SendCmd+0x4a>
 8000fd6:	bd38      	pop	{r3, r4, r5, pc}
 8000fd8:	2095      	movs	r0, #149	; 0x95
 8000fda:	e7ed      	b.n	8000fb8 <SD_SendCmd+0x3c>
 8000fdc:	20ff      	movs	r0, #255	; 0xff
 8000fde:	e7fa      	b.n	8000fd6 <SD_SendCmd+0x5a>

08000fe0 <SD_RxDataBlock>:
 8000fe0:	b570      	push	{r4, r5, r6, lr}
 8000fe2:	4c13      	ldr	r4, [pc, #76]	; (8001030 <SD_RxDataBlock+0x50>)
 8000fe4:	220a      	movs	r2, #10
 8000fe6:	4605      	mov	r5, r0
 8000fe8:	460e      	mov	r6, r1
 8000fea:	7022      	strb	r2, [r4, #0]
 8000fec:	f7ff ff36 	bl	8000e5c <SPI_RxByte>
 8000ff0:	28ff      	cmp	r0, #255	; 0xff
 8000ff2:	d105      	bne.n	8001000 <SD_RxDataBlock+0x20>
 8000ff4:	7823      	ldrb	r3, [r4, #0]
 8000ff6:	f003 00ff 	and.w	r0, r3, #255	; 0xff
 8000ffa:	2b00      	cmp	r3, #0
 8000ffc:	d1f6      	bne.n	8000fec <SD_RxDataBlock+0xc>
 8000ffe:	bd70      	pop	{r4, r5, r6, pc}
 8001000:	28fe      	cmp	r0, #254	; 0xfe
 8001002:	d113      	bne.n	800102c <SD_RxDataBlock+0x4c>
 8001004:	3602      	adds	r6, #2
 8001006:	1cac      	adds	r4, r5, #2
 8001008:	4435      	add	r5, r6
 800100a:	f7ff ff27 	bl	8000e5c <SPI_RxByte>
 800100e:	f804 0c02 	strb.w	r0, [r4, #-2]
 8001012:	f7ff ff23 	bl	8000e5c <SPI_RxByte>
 8001016:	3402      	adds	r4, #2
 8001018:	f804 0c03 	strb.w	r0, [r4, #-3]
 800101c:	42a5      	cmp	r5, r4
 800101e:	d1f4      	bne.n	800100a <SD_RxDataBlock+0x2a>
 8001020:	f7ff ff1c 	bl	8000e5c <SPI_RxByte>
 8001024:	f7ff ff1a 	bl	8000e5c <SPI_RxByte>
 8001028:	2001      	movs	r0, #1
 800102a:	e7e8      	b.n	8000ffe <SD_RxDataBlock+0x1e>
 800102c:	2000      	movs	r0, #0
 800102e:	e7e6      	b.n	8000ffe <SD_RxDataBlock+0x1e>
 8001030:	2000c061 	.word	0x2000c061

08001034 <SD_disk_initialize>:
 8001034:	b5f7      	push	{r0, r1, r2, r4, r5, r6, r7, lr}
 8001036:	2800      	cmp	r0, #0
 8001038:	f040 8095 	bne.w	8001166 <SD_disk_initialize+0x132>
 800103c:	4b4b      	ldr	r3, [pc, #300]	; (800116c <SD_disk_initialize+0x138>)
 800103e:	781c      	ldrb	r4, [r3, #0]
 8001040:	f014 0402 	ands.w	r4, r4, #2
 8001044:	461e      	mov	r6, r3
 8001046:	d003      	beq.n	8001050 <SD_disk_initialize+0x1c>
 8001048:	7818      	ldrb	r0, [r3, #0]
 800104a:	b2c0      	uxtb	r0, r0
 800104c:	b003      	add	sp, #12
 800104e:	bdf0      	pop	{r4, r5, r6, r7, pc}
 8001050:	f7ff ff22 	bl	8000e98 <SD_PowerOn>
 8001054:	f7ff fef2 	bl	8000e3c <SELECT>
 8001058:	4621      	mov	r1, r4
 800105a:	2040      	movs	r0, #64	; 0x40
 800105c:	f7ff ff8e 	bl	8000f7c <SD_SendCmd>
 8001060:	2801      	cmp	r0, #1
 8001062:	d170      	bne.n	8001146 <SD_disk_initialize+0x112>
 8001064:	4d42      	ldr	r5, [pc, #264]	; (8001170 <SD_disk_initialize+0x13c>)
 8001066:	2364      	movs	r3, #100	; 0x64
 8001068:	f44f 71d5 	mov.w	r1, #426	; 0x1aa
 800106c:	2048      	movs	r0, #72	; 0x48
 800106e:	702b      	strb	r3, [r5, #0]
 8001070:	f7ff ff84 	bl	8000f7c <SD_SendCmd>
 8001074:	2801      	cmp	r0, #1
 8001076:	d144      	bne.n	8001102 <SD_disk_initialize+0xce>
 8001078:	af01      	add	r7, sp, #4
 800107a:	f7ff feef 	bl	8000e5c <SPI_RxByte>
 800107e:	5538      	strb	r0, [r7, r4]
 8001080:	3401      	adds	r4, #1
 8001082:	2c04      	cmp	r4, #4
 8001084:	d1f9      	bne.n	800107a <SD_disk_initialize+0x46>
 8001086:	f89d 3006 	ldrb.w	r3, [sp, #6]
 800108a:	2b01      	cmp	r3, #1
 800108c:	d15b      	bne.n	8001146 <SD_disk_initialize+0x112>
 800108e:	f89d 3007 	ldrb.w	r3, [sp, #7]
 8001092:	2baa      	cmp	r3, #170	; 0xaa
 8001094:	d157      	bne.n	8001146 <SD_disk_initialize+0x112>
 8001096:	2100      	movs	r1, #0
 8001098:	2077      	movs	r0, #119	; 0x77
 800109a:	f7ff ff6f 	bl	8000f7c <SD_SendCmd>
 800109e:	2801      	cmp	r0, #1
 80010a0:	d927      	bls.n	80010f2 <SD_disk_initialize+0xbe>
 80010a2:	782b      	ldrb	r3, [r5, #0]
 80010a4:	2b00      	cmp	r3, #0
 80010a6:	d1f6      	bne.n	8001096 <SD_disk_initialize+0x62>
 80010a8:	782b      	ldrb	r3, [r5, #0]
 80010aa:	2b00      	cmp	r3, #0
 80010ac:	d04b      	beq.n	8001146 <SD_disk_initialize+0x112>
 80010ae:	2100      	movs	r1, #0
 80010b0:	207a      	movs	r0, #122	; 0x7a
 80010b2:	f7ff ff63 	bl	8000f7c <SD_SendCmd>
 80010b6:	2800      	cmp	r0, #0
 80010b8:	d145      	bne.n	8001146 <SD_disk_initialize+0x112>
 80010ba:	4604      	mov	r4, r0
 80010bc:	f7ff fece 	bl	8000e5c <SPI_RxByte>
 80010c0:	5538      	strb	r0, [r7, r4]
 80010c2:	3401      	adds	r4, #1
 80010c4:	2c04      	cmp	r4, #4
 80010c6:	d1f9      	bne.n	80010bc <SD_disk_initialize+0x88>
 80010c8:	f89d 3004 	ldrb.w	r3, [sp, #4]
 80010cc:	f013 0f40 	tst.w	r3, #64	; 0x40
 80010d0:	bf14      	ite	ne
 80010d2:	2406      	movne	r4, #6
 80010d4:	2402      	moveq	r4, #2
 80010d6:	4b27      	ldr	r3, [pc, #156]	; (8001174 <SD_disk_initialize+0x140>)
 80010d8:	701c      	strb	r4, [r3, #0]
 80010da:	f7ff feb7 	bl	8000e4c <DESELECT>
 80010de:	f7ff febd 	bl	8000e5c <SPI_RxByte>
 80010e2:	2c00      	cmp	r4, #0
 80010e4:	d03c      	beq.n	8001160 <SD_disk_initialize+0x12c>
 80010e6:	7833      	ldrb	r3, [r6, #0]
 80010e8:	f003 03fe 	and.w	r3, r3, #254	; 0xfe
 80010ec:	7033      	strb	r3, [r6, #0]
 80010ee:	7830      	ldrb	r0, [r6, #0]
 80010f0:	e7ab      	b.n	800104a <SD_disk_initialize+0x16>
 80010f2:	f04f 4180 	mov.w	r1, #1073741824	; 0x40000000
 80010f6:	2069      	movs	r0, #105	; 0x69
 80010f8:	f7ff ff40 	bl	8000f7c <SD_SendCmd>
 80010fc:	2800      	cmp	r0, #0
 80010fe:	d1d0      	bne.n	80010a2 <SD_disk_initialize+0x6e>
 8001100:	e7d2      	b.n	80010a8 <SD_disk_initialize+0x74>
 8001102:	4621      	mov	r1, r4
 8001104:	2077      	movs	r0, #119	; 0x77
 8001106:	f7ff ff39 	bl	8000f7c <SD_SendCmd>
 800110a:	2801      	cmp	r0, #1
 800110c:	d805      	bhi.n	800111a <SD_disk_initialize+0xe6>
 800110e:	4621      	mov	r1, r4
 8001110:	2069      	movs	r0, #105	; 0x69
 8001112:	f7ff ff33 	bl	8000f7c <SD_SendCmd>
 8001116:	2801      	cmp	r0, #1
 8001118:	d917      	bls.n	800114a <SD_disk_initialize+0x116>
 800111a:	2401      	movs	r4, #1
 800111c:	2c02      	cmp	r4, #2
 800111e:	f04f 0100 	mov.w	r1, #0
 8001122:	d11b      	bne.n	800115c <SD_disk_initialize+0x128>
 8001124:	2077      	movs	r0, #119	; 0x77
 8001126:	f7ff ff29 	bl	8000f7c <SD_SendCmd>
 800112a:	2801      	cmp	r0, #1
 800112c:	d90f      	bls.n	800114e <SD_disk_initialize+0x11a>
 800112e:	782b      	ldrb	r3, [r5, #0]
 8001130:	2b00      	cmp	r3, #0
 8001132:	d1f3      	bne.n	800111c <SD_disk_initialize+0xe8>
 8001134:	782b      	ldrb	r3, [r5, #0]
 8001136:	b133      	cbz	r3, 8001146 <SD_disk_initialize+0x112>
 8001138:	f44f 7100 	mov.w	r1, #512	; 0x200
 800113c:	2050      	movs	r0, #80	; 0x50
 800113e:	f7ff ff1d 	bl	8000f7c <SD_SendCmd>
 8001142:	2800      	cmp	r0, #0
 8001144:	d0c7      	beq.n	80010d6 <SD_disk_initialize+0xa2>
 8001146:	2400      	movs	r4, #0
 8001148:	e7c5      	b.n	80010d6 <SD_disk_initialize+0xa2>
 800114a:	2402      	movs	r4, #2
 800114c:	e7e6      	b.n	800111c <SD_disk_initialize+0xe8>
 800114e:	2100      	movs	r1, #0
 8001150:	2069      	movs	r0, #105	; 0x69
 8001152:	f7ff ff13 	bl	8000f7c <SD_SendCmd>
 8001156:	2800      	cmp	r0, #0
 8001158:	d1e9      	bne.n	800112e <SD_disk_initialize+0xfa>
 800115a:	e7eb      	b.n	8001134 <SD_disk_initialize+0x100>
 800115c:	2041      	movs	r0, #65	; 0x41
 800115e:	e7f8      	b.n	8001152 <SD_disk_initialize+0x11e>
 8001160:	4b05      	ldr	r3, [pc, #20]	; (8001178 <SD_disk_initialize+0x144>)
 8001162:	701c      	strb	r4, [r3, #0]
 8001164:	e7c3      	b.n	80010ee <SD_disk_initialize+0xba>
 8001166:	2001      	movs	r0, #1
 8001168:	e770      	b.n	800104c <SD_disk_initialize+0x18>
 800116a:	bf00      	nop
 800116c:	20000000 	.word	0x20000000
 8001170:	2000c061 	.word	0x2000c061
 8001174:	200000ac 	.word	0x200000ac
 8001178:	200000ad 	.word	0x200000ad

0800117c <SD_disk_status>:
 800117c:	b918      	cbnz	r0, 8001186 <SD_disk_status+0xa>
 800117e:	4b03      	ldr	r3, [pc, #12]	; (800118c <SD_disk_status+0x10>)
 8001180:	7818      	ldrb	r0, [r3, #0]
 8001182:	b2c0      	uxtb	r0, r0
 8001184:	4770      	bx	lr
 8001186:	2001      	movs	r0, #1
 8001188:	4770      	bx	lr
 800118a:	bf00      	nop
 800118c:	20000000 	.word	0x20000000

08001190 <SD_disk_read>:
 8001190:	b570      	push	{r4, r5, r6, lr}
 8001192:	460d      	mov	r5, r1
 8001194:	4616      	mov	r6, r2
 8001196:	461c      	mov	r4, r3
 8001198:	2800      	cmp	r0, #0
 800119a:	d137      	bne.n	800120c <SD_disk_read+0x7c>
 800119c:	2b00      	cmp	r3, #0
 800119e:	d035      	beq.n	800120c <SD_disk_read+0x7c>
 80011a0:	4b1c      	ldr	r3, [pc, #112]	; (8001214 <SD_disk_read+0x84>)
 80011a2:	781b      	ldrb	r3, [r3, #0]
 80011a4:	07da      	lsls	r2, r3, #31
 80011a6:	d433      	bmi.n	8001210 <SD_disk_read+0x80>
 80011a8:	4b1b      	ldr	r3, [pc, #108]	; (8001218 <SD_disk_read+0x88>)
 80011aa:	781b      	ldrb	r3, [r3, #0]
 80011ac:	075b      	lsls	r3, r3, #29
 80011ae:	bf58      	it	pl
 80011b0:	0276      	lslpl	r6, r6, #9
 80011b2:	f7ff fe43 	bl	8000e3c <SELECT>
 80011b6:	2c01      	cmp	r4, #1
 80011b8:	4631      	mov	r1, r6
 80011ba:	d113      	bne.n	80011e4 <SD_disk_read+0x54>
 80011bc:	2051      	movs	r0, #81	; 0x51
 80011be:	f7ff fedd 	bl	8000f7c <SD_SendCmd>
 80011c2:	b938      	cbnz	r0, 80011d4 <SD_disk_read+0x44>
 80011c4:	f44f 7100 	mov.w	r1, #512	; 0x200
 80011c8:	4628      	mov	r0, r5
 80011ca:	f7ff ff09 	bl	8000fe0 <SD_RxDataBlock>
 80011ce:	fab0 f480 	clz	r4, r0
 80011d2:	0964      	lsrs	r4, r4, #5
 80011d4:	f7ff fe3a 	bl	8000e4c <DESELECT>
 80011d8:	f7ff fe40 	bl	8000e5c <SPI_RxByte>
 80011dc:	1c20      	adds	r0, r4, #0
 80011de:	bf18      	it	ne
 80011e0:	2001      	movne	r0, #1
 80011e2:	bd70      	pop	{r4, r5, r6, pc}
 80011e4:	2052      	movs	r0, #82	; 0x52
 80011e6:	f7ff fec9 	bl	8000f7c <SD_SendCmd>
 80011ea:	2800      	cmp	r0, #0
 80011ec:	d1f2      	bne.n	80011d4 <SD_disk_read+0x44>
 80011ee:	f44f 7100 	mov.w	r1, #512	; 0x200
 80011f2:	4628      	mov	r0, r5
 80011f4:	f7ff fef4 	bl	8000fe0 <SD_RxDataBlock>
 80011f8:	b118      	cbz	r0, 8001202 <SD_disk_read+0x72>
 80011fa:	3c01      	subs	r4, #1
 80011fc:	f505 7500 	add.w	r5, r5, #512	; 0x200
 8001200:	d1f5      	bne.n	80011ee <SD_disk_read+0x5e>
 8001202:	2100      	movs	r1, #0
 8001204:	204c      	movs	r0, #76	; 0x4c
 8001206:	f7ff feb9 	bl	8000f7c <SD_SendCmd>
 800120a:	e7e3      	b.n	80011d4 <SD_disk_read+0x44>
 800120c:	2004      	movs	r0, #4
 800120e:	e7e8      	b.n	80011e2 <SD_disk_read+0x52>
 8001210:	2003      	movs	r0, #3
 8001212:	e7e6      	b.n	80011e2 <SD_disk_read+0x52>
 8001214:	20000000 	.word	0x20000000
 8001218:	200000ac 	.word	0x200000ac

0800121c <SD_disk_write>:
 800121c:	b5f8      	push	{r3, r4, r5, r6, r7, lr}
 800121e:	460d      	mov	r5, r1
 8001220:	4616      	mov	r6, r2
 8001222:	461c      	mov	r4, r3
 8001224:	2800      	cmp	r0, #0
 8001226:	d147      	bne.n	80012b8 <SD_disk_write+0x9c>
 8001228:	2b00      	cmp	r3, #0
 800122a:	d045      	beq.n	80012b8 <SD_disk_write+0x9c>
 800122c:	4b25      	ldr	r3, [pc, #148]	; (80012c4 <SD_disk_write+0xa8>)
 800122e:	781a      	ldrb	r2, [r3, #0]
 8001230:	07d0      	lsls	r0, r2, #31
 8001232:	d443      	bmi.n	80012bc <SD_disk_write+0xa0>
 8001234:	781b      	ldrb	r3, [r3, #0]
 8001236:	0759      	lsls	r1, r3, #29
 8001238:	d442      	bmi.n	80012c0 <SD_disk_write+0xa4>
 800123a:	4f23      	ldr	r7, [pc, #140]	; (80012c8 <SD_disk_write+0xac>)
 800123c:	783a      	ldrb	r2, [r7, #0]
 800123e:	0752      	lsls	r2, r2, #29
 8001240:	bf58      	it	pl
 8001242:	0276      	lslpl	r6, r6, #9
 8001244:	f7ff fdfa 	bl	8000e3c <SELECT>
 8001248:	2c01      	cmp	r4, #1
 800124a:	d113      	bne.n	8001274 <SD_disk_write+0x58>
 800124c:	4631      	mov	r1, r6
 800124e:	2058      	movs	r0, #88	; 0x58
 8001250:	f7ff fe94 	bl	8000f7c <SD_SendCmd>
 8001254:	bb70      	cbnz	r0, 80012b4 <SD_disk_write+0x98>
 8001256:	21fe      	movs	r1, #254	; 0xfe
 8001258:	4628      	mov	r0, r5
 800125a:	f7ff fe59 	bl	8000f10 <SD_TxDataBlock>
 800125e:	fab0 f480 	clz	r4, r0
 8001262:	0964      	lsrs	r4, r4, #5
 8001264:	f7ff fdf2 	bl	8000e4c <DESELECT>
 8001268:	f7ff fdf8 	bl	8000e5c <SPI_RxByte>
 800126c:	1c20      	adds	r0, r4, #0
 800126e:	bf18      	it	ne
 8001270:	2001      	movne	r0, #1
 8001272:	bdf8      	pop	{r3, r4, r5, r6, r7, pc}
 8001274:	783b      	ldrb	r3, [r7, #0]
 8001276:	079b      	lsls	r3, r3, #30
 8001278:	d507      	bpl.n	800128a <SD_disk_write+0x6e>
 800127a:	2100      	movs	r1, #0
 800127c:	2077      	movs	r0, #119	; 0x77
 800127e:	f7ff fe7d 	bl	8000f7c <SD_SendCmd>
 8001282:	4621      	mov	r1, r4
 8001284:	2057      	movs	r0, #87	; 0x57
 8001286:	f7ff fe79 	bl	8000f7c <SD_SendCmd>
 800128a:	4631      	mov	r1, r6
 800128c:	2059      	movs	r0, #89	; 0x59
 800128e:	f7ff fe75 	bl	8000f7c <SD_SendCmd>
 8001292:	2800      	cmp	r0, #0
 8001294:	d1e6      	bne.n	8001264 <SD_disk_write+0x48>
 8001296:	21fc      	movs	r1, #252	; 0xfc
 8001298:	4628      	mov	r0, r5
 800129a:	f7ff fe39 	bl	8000f10 <SD_TxDataBlock>
 800129e:	b118      	cbz	r0, 80012a8 <SD_disk_write+0x8c>
 80012a0:	3c01      	subs	r4, #1
 80012a2:	f505 7500 	add.w	r5, r5, #512	; 0x200
 80012a6:	d1f6      	bne.n	8001296 <SD_disk_write+0x7a>
 80012a8:	21fd      	movs	r1, #253	; 0xfd
 80012aa:	2000      	movs	r0, #0
 80012ac:	f7ff fe30 	bl	8000f10 <SD_TxDataBlock>
 80012b0:	2800      	cmp	r0, #0
 80012b2:	d1d7      	bne.n	8001264 <SD_disk_write+0x48>
 80012b4:	2401      	movs	r4, #1
 80012b6:	e7d5      	b.n	8001264 <SD_disk_write+0x48>
 80012b8:	2004      	movs	r0, #4
 80012ba:	e7da      	b.n	8001272 <SD_disk_write+0x56>
 80012bc:	2003      	movs	r0, #3
 80012be:	e7d8      	b.n	8001272 <SD_disk_write+0x56>
 80012c0:	2002      	movs	r0, #2
 80012c2:	e7d6      	b.n	8001272 <SD_disk_write+0x56>
 80012c4:	20000000 	.word	0x20000000
 80012c8:	200000ac 	.word	0x200000ac

080012cc <SD_disk_ioctl>:
 80012cc:	b57f      	push	{r0, r1, r2, r3, r4, r5, r6, lr}
 80012ce:	460c      	mov	r4, r1
 80012d0:	4615      	mov	r5, r2
 80012d2:	4606      	mov	r6, r0
 80012d4:	b938      	cbnz	r0, 80012e6 <SD_disk_ioctl+0x1a>
 80012d6:	2905      	cmp	r1, #5
 80012d8:	d116      	bne.n	8001308 <SD_disk_ioctl+0x3c>
 80012da:	7813      	ldrb	r3, [r2, #0]
 80012dc:	2b01      	cmp	r3, #1
 80012de:	d00c      	beq.n	80012fa <SD_disk_ioctl+0x2e>
 80012e0:	d303      	bcc.n	80012ea <SD_disk_ioctl+0x1e>
 80012e2:	2b02      	cmp	r3, #2
 80012e4:	d00c      	beq.n	8001300 <SD_disk_ioctl+0x34>
 80012e6:	2404      	movs	r4, #4
 80012e8:	e004      	b.n	80012f4 <SD_disk_ioctl+0x28>
 80012ea:	4b46      	ldr	r3, [pc, #280]	; (8001404 <SD_disk_ioctl+0x138>)
 80012ec:	781c      	ldrb	r4, [r3, #0]
 80012ee:	b10c      	cbz	r4, 80012f4 <SD_disk_ioctl+0x28>
 80012f0:	7018      	strb	r0, [r3, #0]
 80012f2:	4634      	mov	r4, r6
 80012f4:	4620      	mov	r0, r4
 80012f6:	b004      	add	sp, #16
 80012f8:	bd70      	pop	{r4, r5, r6, pc}
 80012fa:	f7ff fdcd 	bl	8000e98 <SD_PowerOn>
 80012fe:	e7f8      	b.n	80012f2 <SD_disk_ioctl+0x26>
 8001300:	4b40      	ldr	r3, [pc, #256]	; (8001404 <SD_disk_ioctl+0x138>)
 8001302:	781b      	ldrb	r3, [r3, #0]
 8001304:	7053      	strb	r3, [r2, #1]
 8001306:	e7f4      	b.n	80012f2 <SD_disk_ioctl+0x26>
 8001308:	4b3f      	ldr	r3, [pc, #252]	; (8001408 <SD_disk_ioctl+0x13c>)
 800130a:	781b      	ldrb	r3, [r3, #0]
 800130c:	07db      	lsls	r3, r3, #31
 800130e:	d477      	bmi.n	8001400 <SD_disk_ioctl+0x134>
 8001310:	f7ff fd94 	bl	8000e3c <SELECT>
 8001314:	2c0d      	cmp	r4, #13
 8001316:	d869      	bhi.n	80013ec <SD_disk_ioctl+0x120>
 8001318:	e8df f004 	tbb	[pc, r4]
 800131c:	6846074b 	.word	0x6846074b
 8001320:	68686868 	.word	0x68686868
 8001324:	52686868 	.word	0x52686868
 8001328:	6360      	.short	0x6360
 800132a:	2100      	movs	r1, #0
 800132c:	2049      	movs	r0, #73	; 0x49
 800132e:	f7ff fe25 	bl	8000f7c <SD_SendCmd>
 8001332:	4604      	mov	r4, r0
 8001334:	b128      	cbz	r0, 8001342 <SD_disk_ioctl+0x76>
 8001336:	2401      	movs	r4, #1
 8001338:	f7ff fd88 	bl	8000e4c <DESELECT>
 800133c:	f7ff fd8e 	bl	8000e5c <SPI_RxByte>
 8001340:	e7d8      	b.n	80012f4 <SD_disk_ioctl+0x28>
 8001342:	2110      	movs	r1, #16
 8001344:	4668      	mov	r0, sp
 8001346:	f7ff fe4b 	bl	8000fe0 <SD_RxDataBlock>
 800134a:	2800      	cmp	r0, #0
 800134c:	d0f3      	beq.n	8001336 <SD_disk_ioctl+0x6a>
 800134e:	f89d 1000 	ldrb.w	r1, [sp]
 8001352:	f89d 3009 	ldrb.w	r3, [sp, #9]
 8001356:	f89d 2008 	ldrb.w	r2, [sp, #8]
 800135a:	0989      	lsrs	r1, r1, #6
 800135c:	2901      	cmp	r1, #1
 800135e:	d106      	bne.n	800136e <SD_disk_ioctl+0xa2>
 8001360:	3301      	adds	r3, #1
 8001362:	eb03 2202 	add.w	r2, r3, r2, lsl #8
 8001366:	b292      	uxth	r2, r2
 8001368:	0292      	lsls	r2, r2, #10
 800136a:	602a      	str	r2, [r5, #0]
 800136c:	e7e4      	b.n	8001338 <SD_disk_ioctl+0x6c>
 800136e:	f89d 1007 	ldrb.w	r1, [sp, #7]
 8001372:	f89d 000a 	ldrb.w	r0, [sp, #10]
 8001376:	0992      	lsrs	r2, r2, #6
 8001378:	eb02 0281 	add.w	r2, r2, r1, lsl #2
 800137c:	f89d 1006 	ldrb.w	r1, [sp, #6]
 8001380:	0289      	lsls	r1, r1, #10
 8001382:	f401 6140 	and.w	r1, r1, #3072	; 0xc00
 8001386:	3201      	adds	r2, #1
 8001388:	440a      	add	r2, r1
 800138a:	f89d 1005 	ldrb.w	r1, [sp, #5]
 800138e:	005b      	lsls	r3, r3, #1
 8001390:	f001 010f 	and.w	r1, r1, #15
 8001394:	eb01 11d0 	add.w	r1, r1, r0, lsr #7
 8001398:	f003 0306 	and.w	r3, r3, #6
 800139c:	440b      	add	r3, r1
 800139e:	3b07      	subs	r3, #7
 80013a0:	fa02 f303 	lsl.w	r3, r2, r3
 80013a4:	602b      	str	r3, [r5, #0]
 80013a6:	e7c7      	b.n	8001338 <SD_disk_ioctl+0x6c>
 80013a8:	f44f 7300 	mov.w	r3, #512	; 0x200
 80013ac:	802b      	strh	r3, [r5, #0]
 80013ae:	2400      	movs	r4, #0
 80013b0:	e7c2      	b.n	8001338 <SD_disk_ioctl+0x6c>
 80013b2:	f7ff fd9d 	bl	8000ef0 <SD_ReadyWait>
 80013b6:	f1b0 04ff 	subs.w	r4, r0, #255	; 0xff
 80013ba:	bf18      	it	ne
 80013bc:	2401      	movne	r4, #1
 80013be:	e7bb      	b.n	8001338 <SD_disk_ioctl+0x6c>
 80013c0:	2100      	movs	r1, #0
 80013c2:	2049      	movs	r0, #73	; 0x49
 80013c4:	f7ff fdda 	bl	8000f7c <SD_SendCmd>
 80013c8:	2800      	cmp	r0, #0
 80013ca:	d1b4      	bne.n	8001336 <SD_disk_ioctl+0x6a>
 80013cc:	2110      	movs	r1, #16
 80013ce:	4628      	mov	r0, r5
 80013d0:	f7ff fe06 	bl	8000fe0 <SD_RxDataBlock>
 80013d4:	fab0 f480 	clz	r4, r0
 80013d8:	0964      	lsrs	r4, r4, #5
 80013da:	e7ad      	b.n	8001338 <SD_disk_ioctl+0x6c>
 80013dc:	2100      	movs	r1, #0
 80013de:	204a      	movs	r0, #74	; 0x4a
 80013e0:	e7f0      	b.n	80013c4 <SD_disk_ioctl+0xf8>
 80013e2:	2100      	movs	r1, #0
 80013e4:	207a      	movs	r0, #122	; 0x7a
 80013e6:	f7ff fdc9 	bl	8000f7c <SD_SendCmd>
 80013ea:	b108      	cbz	r0, 80013f0 <SD_disk_ioctl+0x124>
 80013ec:	2404      	movs	r4, #4
 80013ee:	e7a3      	b.n	8001338 <SD_disk_ioctl+0x6c>
 80013f0:	1d2c      	adds	r4, r5, #4
 80013f2:	f7ff fd33 	bl	8000e5c <SPI_RxByte>
 80013f6:	f805 0b01 	strb.w	r0, [r5], #1
 80013fa:	42ac      	cmp	r4, r5
 80013fc:	d1f9      	bne.n	80013f2 <SD_disk_ioctl+0x126>
 80013fe:	e7f5      	b.n	80013ec <SD_disk_ioctl+0x120>
 8001400:	2403      	movs	r4, #3
 8001402:	e777      	b.n	80012f4 <SD_disk_ioctl+0x28>
 8001404:	200000ad 	.word	0x200000ad
 8001408:	20000000 	.word	0x20000000

0800140c <MX_GPIO_Init>:
 800140c:	b5f0      	push	{r4, r5, r6, r7, lr}
 800140e:	b089      	sub	sp, #36	; 0x24
 8001410:	2214      	movs	r2, #20
 8001412:	2100      	movs	r1, #0
 8001414:	a803      	add	r0, sp, #12
 8001416:	f003 fbd3 	bl	8004bc0 <memset>
 800141a:	2400      	movs	r4, #0
 800141c:	4b1f      	ldr	r3, [pc, #124]	; (800149c <MX_GPIO_Init+0x90>)
 800141e:	9400      	str	r4, [sp, #0]
 8001420:	6b1a      	ldr	r2, [r3, #48]	; 0x30
 8001422:	4f1f      	ldr	r7, [pc, #124]	; (80014a0 <MX_GPIO_Init+0x94>)
 8001424:	4d1f      	ldr	r5, [pc, #124]	; (80014a4 <MX_GPIO_Init+0x98>)
 8001426:	f042 0204 	orr.w	r2, r2, #4
 800142a:	631a      	str	r2, [r3, #48]	; 0x30
 800142c:	6b1a      	ldr	r2, [r3, #48]	; 0x30
 800142e:	f002 0204 	and.w	r2, r2, #4
 8001432:	9200      	str	r2, [sp, #0]
 8001434:	9a00      	ldr	r2, [sp, #0]
 8001436:	9401      	str	r4, [sp, #4]
 8001438:	6b1a      	ldr	r2, [r3, #48]	; 0x30
 800143a:	f042 0201 	orr.w	r2, r2, #1
 800143e:	631a      	str	r2, [r3, #48]	; 0x30
 8001440:	6b1a      	ldr	r2, [r3, #48]	; 0x30
 8001442:	f002 0201 	and.w	r2, r2, #1
 8001446:	9201      	str	r2, [sp, #4]
 8001448:	9a01      	ldr	r2, [sp, #4]
 800144a:	9402      	str	r4, [sp, #8]
 800144c:	6b1a      	ldr	r2, [r3, #48]	; 0x30
 800144e:	f042 0202 	orr.w	r2, r2, #2
 8001452:	631a      	str	r2, [r3, #48]	; 0x30
 8001454:	6b1b      	ldr	r3, [r3, #48]	; 0x30
 8001456:	f003 0302 	and.w	r3, r3, #2
 800145a:	9302      	str	r3, [sp, #8]
 800145c:	4622      	mov	r2, r4
 800145e:	4638      	mov	r0, r7
 8001460:	21e0      	movs	r1, #224	; 0xe0
 8001462:	9b02      	ldr	r3, [sp, #8]
 8001464:	f001 fa6e 	bl	8002944 <HAL_GPIO_WritePin>
 8001468:	4622      	mov	r2, r4
 800146a:	4628      	mov	r0, r5
 800146c:	2110      	movs	r1, #16
 800146e:	f001 fa69 	bl	8002944 <HAL_GPIO_WritePin>
 8001472:	2601      	movs	r6, #1
 8001474:	23e0      	movs	r3, #224	; 0xe0
 8001476:	a903      	add	r1, sp, #12
 8001478:	4638      	mov	r0, r7
 800147a:	e9cd 3603 	strd	r3, r6, [sp, #12]
 800147e:	e9cd 4405 	strd	r4, r4, [sp, #20]
 8001482:	f001 f991 	bl	80027a8 <HAL_GPIO_Init>
 8001486:	2310      	movs	r3, #16
 8001488:	a903      	add	r1, sp, #12
 800148a:	4628      	mov	r0, r5
 800148c:	e9cd 3603 	strd	r3, r6, [sp, #12]
 8001490:	e9cd 4405 	strd	r4, r4, [sp, #20]
 8001494:	f001 f988 	bl	80027a8 <HAL_GPIO_Init>
 8001498:	b009      	add	sp, #36	; 0x24
 800149a:	bdf0      	pop	{r4, r5, r6, r7, pc}
 800149c:	40023800 	.word	0x40023800
 80014a0:	40020000 	.word	0x40020000
 80014a4:	40020400 	.word	0x40020400

080014a8 <przepiszPlik>:
 80014a8:	b510      	push	{r4, lr}
 80014aa:	4a05      	ldr	r2, [pc, #20]	; (80014c0 <przepiszPlik+0x18>)
 80014ac:	4905      	ldr	r1, [pc, #20]	; (80014c4 <przepiszPlik+0x1c>)
 80014ae:	2300      	movs	r3, #0
 80014b0:	4283      	cmp	r3, r0
 80014b2:	db00      	blt.n	80014b6 <przepiszPlik+0xe>
 80014b4:	bd10      	pop	{r4, pc}
 80014b6:	5c5c      	ldrb	r4, [r3, r1]
 80014b8:	549c      	strb	r4, [r3, r2]
 80014ba:	3301      	adds	r3, #1
 80014bc:	e7f8      	b.n	80014b0 <przepiszPlik+0x8>
 80014be:	bf00      	nop
 80014c0:	200002f8 	.word	0x200002f8
 80014c4:	2000a034 	.word	0x2000a034

080014c8 <otworzPlikZTekstem>:
 80014c8:	b538      	push	{r3, r4, r5, lr}
 80014ca:	2200      	movs	r2, #0
 80014cc:	490e      	ldr	r1, [pc, #56]	; (8001508 <otworzPlikZTekstem+0x40>)
 80014ce:	480f      	ldr	r0, [pc, #60]	; (800150c <otworzPlikZTekstem+0x44>)
 80014d0:	4c0f      	ldr	r4, [pc, #60]	; (8001510 <otworzPlikZTekstem+0x48>)
 80014d2:	4d10      	ldr	r5, [pc, #64]	; (8001514 <otworzPlikZTekstem+0x4c>)
 80014d4:	f003 f840 	bl	8004558 <f_mount>
 80014d8:	2201      	movs	r2, #1
 80014da:	7028      	strb	r0, [r5, #0]
 80014dc:	490e      	ldr	r1, [pc, #56]	; (8001518 <otworzPlikZTekstem+0x50>)
 80014de:	4620      	mov	r0, r4
 80014e0:	f003 f86e 	bl	80045c0 <f_open>
 80014e4:	7028      	strb	r0, [r5, #0]
 80014e6:	4d0d      	ldr	r5, [pc, #52]	; (800151c <otworzPlikZTekstem+0x54>)
 80014e8:	4622      	mov	r2, r4
 80014ea:	f44f 5180 	mov.w	r1, #4096	; 0x1000
 80014ee:	4628      	mov	r0, r5
 80014f0:	f003 fa90 	bl	8004a14 <f_gets>
 80014f4:	4620      	mov	r0, r4
 80014f6:	f003 fa7c 	bl	80049f2 <f_close>
 80014fa:	4628      	mov	r0, r5
 80014fc:	f7fe fe6c 	bl	80001d8 <strlen>
 8001500:	e8bd 4038 	ldmia.w	sp!, {r3, r4, r5, lr}
 8001504:	f7ff bfd0 	b.w	80014a8 <przepiszPlik>
 8001508:	08006610 	.word	0x08006610
 800150c:	20001298 	.word	0x20001298
 8001510:	2000afd8 	.word	0x2000afd8
 8001514:	2000afd4 	.word	0x2000afd4
 8001518:	08006692 	.word	0x08006692
 800151c:	2000a034 	.word	0x2000a034

08001520 <otworzPlikZParametrami>:
 8001520:	b510      	push	{r4, lr}
 8001522:	2200      	movs	r2, #0
 8001524:	492a      	ldr	r1, [pc, #168]	; (80015d0 <otworzPlikZParametrami+0xb0>)
 8001526:	482b      	ldr	r0, [pc, #172]	; (80015d4 <otworzPlikZParametrami+0xb4>)
 8001528:	4c2b      	ldr	r4, [pc, #172]	; (80015d8 <otworzPlikZParametrami+0xb8>)
 800152a:	f003 f815 	bl	8004558 <f_mount>
 800152e:	2201      	movs	r2, #1
 8001530:	7020      	strb	r0, [r4, #0]
 8001532:	492a      	ldr	r1, [pc, #168]	; (80015dc <otworzPlikZParametrami+0xbc>)
 8001534:	482a      	ldr	r0, [pc, #168]	; (80015e0 <otworzPlikZParametrami+0xc0>)
 8001536:	f003 f843 	bl	80045c0 <f_open>
 800153a:	7020      	strb	r0, [r4, #0]
 800153c:	4c29      	ldr	r4, [pc, #164]	; (80015e4 <otworzPlikZParametrami+0xc4>)
 800153e:	4a28      	ldr	r2, [pc, #160]	; (80015e0 <otworzPlikZParametrami+0xc0>)
 8001540:	f44f 5180 	mov.w	r1, #4096	; 0x1000
 8001544:	4620      	mov	r0, r4
 8001546:	f003 fa65 	bl	8004a14 <f_gets>
 800154a:	4825      	ldr	r0, [pc, #148]	; (80015e0 <otworzPlikZParametrami+0xc0>)
 800154c:	f003 fa51 	bl	80049f2 <f_close>
 8001550:	7ba3      	ldrb	r3, [r4, #14]
 8001552:	4a25      	ldr	r2, [pc, #148]	; (80015e8 <otworzPlikZParametrami+0xc8>)
 8001554:	f1a3 0130 	sub.w	r1, r3, #48	; 0x30
 8001558:	3b31      	subs	r3, #49	; 0x31
 800155a:	2b08      	cmp	r3, #8
 800155c:	6011      	str	r1, [r2, #0]
 800155e:	d934      	bls.n	80015ca <otworzPlikZParametrami+0xaa>
 8001560:	4922      	ldr	r1, [pc, #136]	; (80015ec <otworzPlikZParametrami+0xcc>)
 8001562:	4823      	ldr	r0, [pc, #140]	; (80015f0 <otworzPlikZParametrami+0xd0>)
 8001564:	f003 fb34 	bl	8004bd0 <strcpy>
 8001568:	2000      	movs	r0, #0
 800156a:	7963      	ldrb	r3, [r4, #5]
 800156c:	4a21      	ldr	r2, [pc, #132]	; (80015f4 <otworzPlikZParametrami+0xd4>)
 800156e:	3b30      	subs	r3, #48	; 0x30
 8001570:	2b01      	cmp	r3, #1
 8001572:	6013      	str	r3, [r2, #0]
 8001574:	d904      	bls.n	8001580 <otworzPlikZParametrami+0x60>
 8001576:	4920      	ldr	r1, [pc, #128]	; (80015f8 <otworzPlikZParametrami+0xd8>)
 8001578:	481d      	ldr	r0, [pc, #116]	; (80015f0 <otworzPlikZParametrami+0xd0>)
 800157a:	f003 fb29 	bl	8004bd0 <strcpy>
 800157e:	2000      	movs	r0, #0
 8001580:	7f63      	ldrb	r3, [r4, #29]
 8001582:	7fa2      	ldrb	r2, [r4, #30]
 8001584:	210a      	movs	r1, #10
 8001586:	3b30      	subs	r3, #48	; 0x30
 8001588:	fb01 2303 	mla	r3, r1, r3, r2
 800158c:	f1a3 0130 	sub.w	r1, r3, #48	; 0x30
 8001590:	4a1a      	ldr	r2, [pc, #104]	; (80015fc <otworzPlikZParametrami+0xdc>)
 8001592:	3b31      	subs	r3, #49	; 0x31
 8001594:	2b3f      	cmp	r3, #63	; 0x3f
 8001596:	6011      	str	r1, [r2, #0]
 8001598:	d904      	bls.n	80015a4 <otworzPlikZParametrami+0x84>
 800159a:	4919      	ldr	r1, [pc, #100]	; (8001600 <otworzPlikZParametrami+0xe0>)
 800159c:	4814      	ldr	r0, [pc, #80]	; (80015f0 <otworzPlikZParametrami+0xd0>)
 800159e:	f003 fb17 	bl	8004bd0 <strcpy>
 80015a2:	2000      	movs	r0, #0
 80015a4:	f894 302a 	ldrb.w	r3, [r4, #42]	; 0x2a
 80015a8:	f894 202b 	ldrb.w	r2, [r4, #43]	; 0x2b
 80015ac:	3b30      	subs	r3, #48	; 0x30
 80015ae:	210a      	movs	r1, #10
 80015b0:	fb01 2303 	mla	r3, r1, r3, r2
 80015b4:	3b30      	subs	r3, #48	; 0x30
 80015b6:	4a13      	ldr	r2, [pc, #76]	; (8001604 <otworzPlikZParametrami+0xe4>)
 80015b8:	2b0f      	cmp	r3, #15
 80015ba:	6013      	str	r3, [r2, #0]
 80015bc:	d904      	bls.n	80015c8 <otworzPlikZParametrami+0xa8>
 80015be:	4912      	ldr	r1, [pc, #72]	; (8001608 <otworzPlikZParametrami+0xe8>)
 80015c0:	480b      	ldr	r0, [pc, #44]	; (80015f0 <otworzPlikZParametrami+0xd0>)
 80015c2:	f003 fb05 	bl	8004bd0 <strcpy>
 80015c6:	2000      	movs	r0, #0
 80015c8:	bd10      	pop	{r4, pc}
 80015ca:	2001      	movs	r0, #1
 80015cc:	e7cd      	b.n	800156a <otworzPlikZParametrami+0x4a>
 80015ce:	bf00      	nop
 80015d0:	08006610 	.word	0x08006610
 80015d4:	20001298 	.word	0x20001298
 80015d8:	2000afd4 	.word	0x2000afd4
 80015dc:	08006588 	.word	0x08006588
 80015e0:	2000afd8 	.word	0x2000afd8
 80015e4:	200022d0 	.word	0x200022d0
 80015e8:	200000bc 	.word	0x200000bc
 80015ec:	08006593 	.word	0x08006593
 80015f0:	200002f8 	.word	0x200002f8
 80015f4:	20000004 	.word	0x20000004
 80015f8:	080065de 	.word	0x080065de
 80015fc:	200000b4 	.word	0x200000b4
 8001600:	08006611 	.word	0x08006611
 8001604:	200000b8 	.word	0x200000b8
 8001608:	08006652 	.word	0x08006652

0800160c <wypelnijGlownaTablice>:
 800160c:	4811      	ldr	r0, [pc, #68]	; (8001654 <wypelnijGlownaTablice+0x48>)
 800160e:	b5f0      	push	{r4, r5, r6, r7, lr}
 8001610:	2100      	movs	r1, #0
 8001612:	2302      	movs	r3, #2
 8001614:	f100 0e01 	add.w	lr, r0, #1
 8001618:	f642 6ce0 	movw	ip, #12000	; 0x2ee0
 800161c:	f644 6620 	movw	r6, #20000	; 0x4e20
 8001620:	f645 55c0 	movw	r5, #24000	; 0x5dc0
 8001624:	f646 5460 	movw	r4, #28000	; 0x6d60
 8001628:	eb01 020e 	add.w	r2, r1, lr
 800162c:	f800 3f01 	strb.w	r3, [r0, #1]!
 8001630:	f502 57fa 	add.w	r7, r2, #8000	; 0x1f40
 8001634:	f880 3fa0 	strb.w	r3, [r0, #4000]	; 0xfa0
 8001638:	3101      	adds	r1, #1
 800163a:	703b      	strb	r3, [r7, #0]
 800163c:	f502 577a 	add.w	r7, r2, #16000	; 0x3e80
 8001640:	f5b1 6f7a 	cmp.w	r1, #4000	; 0xfa0
 8001644:	f802 300c 	strb.w	r3, [r2, ip]
 8001648:	703b      	strb	r3, [r7, #0]
 800164a:	5593      	strb	r3, [r2, r6]
 800164c:	5553      	strb	r3, [r2, r5]
 800164e:	5513      	strb	r3, [r2, r4]
 8001650:	d1ea      	bne.n	8001628 <wypelnijGlownaTablice+0x1c>
 8001652:	bdf0      	pop	{r4, r5, r6, r7, pc}
 8001654:	20002333 	.word	0x20002333

08001658 <dlugoscTablicyGlownej>:
 8001658:	b510      	push	{r4, lr}
 800165a:	2300      	movs	r3, #0
 800165c:	4906      	ldr	r1, [pc, #24]	; (8001678 <dlugoscTablicyGlownej+0x20>)
 800165e:	4618      	mov	r0, r3
 8001660:	f646 5260 	movw	r2, #28000	; 0x6d60
 8001664:	189c      	adds	r4, r3, r2
 8001666:	3301      	adds	r3, #1
 8001668:	5c64      	ldrb	r4, [r4, r1]
 800166a:	2c02      	cmp	r4, #2
 800166c:	bf18      	it	ne
 800166e:	3001      	addne	r0, #1
 8001670:	f5b3 6f7a 	cmp.w	r3, #4000	; 0xfa0
 8001674:	d1f6      	bne.n	8001664 <dlugoscTablicyGlownej+0xc>
 8001676:	bd10      	pop	{r4, pc}
 8001678:	20002334 	.word	0x20002334

0800167c <dodajMacierzLitery>:
 800167c:	b5f8      	push	{r3, r4, r5, r6, r7, lr}
 800167e:	4b0e      	ldr	r3, [pc, #56]	; (80016b8 <dodajMacierzLitery+0x3c>)
 8001680:	4605      	mov	r5, r0
 8001682:	681c      	ldr	r4, [r3, #0]
 8001684:	f7ff ffe8 	bl	8001658 <dlugoscTablicyGlownej>
 8001688:	4b0c      	ldr	r3, [pc, #48]	; (80016bc <dodajMacierzLitery+0x40>)
 800168a:	f44f 667a 	mov.w	r6, #4000	; 0xfa0
 800168e:	4418      	add	r0, r3
 8001690:	2300      	movs	r3, #0
 8001692:	42a3      	cmp	r3, r4
 8001694:	db00      	blt.n	8001698 <dodajMacierzLitery+0x1c>
 8001696:	bdf8      	pop	{r3, r4, r5, r6, r7, pc}
 8001698:	18e9      	adds	r1, r5, r3
 800169a:	2200      	movs	r2, #0
 800169c:	fb06 f702 	mul.w	r7, r6, r2
 80016a0:	3201      	adds	r2, #1
 80016a2:	f891 c000 	ldrb.w	ip, [r1]
 80016a6:	f800 c007 	strb.w	ip, [r0, r7]
 80016aa:	2a08      	cmp	r2, #8
 80016ac:	4421      	add	r1, r4
 80016ae:	d1f5      	bne.n	800169c <dodajMacierzLitery+0x20>
 80016b0:	3301      	adds	r3, #1
 80016b2:	3001      	adds	r0, #1
 80016b4:	e7ed      	b.n	8001692 <dodajMacierzLitery+0x16>
 80016b6:	bf00      	nop
 80016b8:	200000b0 	.word	0x200000b0
 80016bc:	20002334 	.word	0x20002334

080016c0 <KonwertujTekst>:
 80016c0:	e92d 4ff0 	stmdb	sp!, {r4, r5, r6, r7, r8, r9, sl, fp, lr}
 80016c4:	4bd0      	ldr	r3, [pc, #832]	; (8001a08 <KonwertujTekst+0x348>)
 80016c6:	f6ad 2de4 	subw	sp, sp, #2788	; 0xae4
 80016ca:	4681      	mov	r9, r0
 80016cc:	f60d 24a8 	addw	r4, sp, #2728	; 0xaa8
 80016d0:	f103 0538 	add.w	r5, r3, #56	; 0x38
 80016d4:	6818      	ldr	r0, [r3, #0]
 80016d6:	6859      	ldr	r1, [r3, #4]
 80016d8:	4622      	mov	r2, r4
 80016da:	c203      	stmia	r2!, {r0, r1}
 80016dc:	3308      	adds	r3, #8
 80016de:	42ab      	cmp	r3, r5
 80016e0:	4614      	mov	r4, r2
 80016e2:	d1f7      	bne.n	80016d4 <KonwertujTekst+0x14>
 80016e4:	2218      	movs	r2, #24
 80016e6:	2100      	movs	r1, #0
 80016e8:	a808      	add	r0, sp, #32
 80016ea:	f003 fa69 	bl	8004bc0 <memset>
 80016ee:	f240 1301 	movw	r3, #257	; 0x101
 80016f2:	f8ad 3032 	strh.w	r3, [sp, #50]	; 0x32
 80016f6:	2301      	movs	r3, #1
 80016f8:	f88d 3035 	strb.w	r3, [sp, #53]	; 0x35
 80016fc:	f88d 3036 	strb.w	r3, [sp, #54]	; 0x36
 8001700:	4bc2      	ldr	r3, [pc, #776]	; (8001a0c <KonwertujTekst+0x34c>)
 8001702:	466c      	mov	r4, sp
 8001704:	f103 0510 	add.w	r5, r3, #16
 8001708:	6818      	ldr	r0, [r3, #0]
 800170a:	6859      	ldr	r1, [r3, #4]
 800170c:	4622      	mov	r2, r4
 800170e:	c203      	stmia	r2!, {r0, r1}
 8001710:	3308      	adds	r3, #8
 8001712:	42ab      	cmp	r3, r5
 8001714:	4614      	mov	r4, r2
 8001716:	d1f7      	bne.n	8001708 <KonwertujTekst+0x48>
 8001718:	4bbd      	ldr	r3, [pc, #756]	; (8001a10 <KonwertujTekst+0x350>)
 800171a:	ac04      	add	r4, sp, #16
 800171c:	f103 0510 	add.w	r5, r3, #16
 8001720:	6818      	ldr	r0, [r3, #0]
 8001722:	6859      	ldr	r1, [r3, #4]
 8001724:	4622      	mov	r2, r4
 8001726:	c203      	stmia	r2!, {r0, r1}
 8001728:	3308      	adds	r3, #8
 800172a:	42ab      	cmp	r3, r5
 800172c:	4614      	mov	r4, r2
 800172e:	d1f7      	bne.n	8001720 <KonwertujTekst+0x60>
 8001730:	2230      	movs	r2, #48	; 0x30
 8001732:	2100      	movs	r1, #0
 8001734:	a83a      	add	r0, sp, #232	; 0xe8
 8001736:	f003 fa43 	bl	8004bc0 <memset>
 800173a:	2401      	movs	r4, #1
 800173c:	2218      	movs	r2, #24
 800173e:	2100      	movs	r1, #0
 8001740:	a80e      	add	r0, sp, #56	; 0x38
 8001742:	f88d 40e9 	strb.w	r4, [sp, #233]	; 0xe9
 8001746:	f88d 40ea 	strb.w	r4, [sp, #234]	; 0xea
 800174a:	f88d 40eb 	strb.w	r4, [sp, #235]	; 0xeb
 800174e:	f88d 40ee 	strb.w	r4, [sp, #238]	; 0xee
 8001752:	f88d 40f2 	strb.w	r4, [sp, #242]	; 0xf2
 8001756:	f88d 40f8 	strb.w	r4, [sp, #248]	; 0xf8
 800175a:	f88d 40fd 	strb.w	r4, [sp, #253]	; 0xfd
 800175e:	f88d 4102 	strb.w	r4, [sp, #258]	; 0x102
 8001762:	f88d 4108 	strb.w	r4, [sp, #264]	; 0x108
 8001766:	f88d 4114 	strb.w	r4, [sp, #276]	; 0x114
 800176a:	f003 fa29 	bl	8004bc0 <memset>
 800176e:	4ba9      	ldr	r3, [pc, #676]	; (8001a14 <KonwertujTekst+0x354>)
 8001770:	f88d 4047 	strb.w	r4, [sp, #71]	; 0x47
 8001774:	f88d 404b 	strb.w	r4, [sp, #75]	; 0x4b
 8001778:	f88d 404e 	strb.w	r4, [sp, #78]	; 0x4e
 800177c:	f103 0518 	add.w	r5, r3, #24
 8001780:	ac14      	add	r4, sp, #80	; 0x50
 8001782:	6818      	ldr	r0, [r3, #0]
 8001784:	6859      	ldr	r1, [r3, #4]
 8001786:	4622      	mov	r2, r4
 8001788:	c203      	stmia	r2!, {r0, r1}
 800178a:	3308      	adds	r3, #8
 800178c:	42ab      	cmp	r3, r5
 800178e:	4614      	mov	r4, r2
 8001790:	d1f7      	bne.n	8001782 <KonwertujTekst+0xc2>
 8001792:	2230      	movs	r2, #48	; 0x30
 8001794:	2100      	movs	r1, #0
 8001796:	a846      	add	r0, sp, #280	; 0x118
 8001798:	2401      	movs	r4, #1
 800179a:	f003 fa11 	bl	8004bc0 <memset>
 800179e:	2230      	movs	r2, #48	; 0x30
 80017a0:	2100      	movs	r1, #0
 80017a2:	a852      	add	r0, sp, #328	; 0x148
 80017a4:	f240 1501 	movw	r5, #257	; 0x101
 80017a8:	f04f 3601 	mov.w	r6, #16843009	; 0x1010101
 80017ac:	f88d 411c 	strb.w	r4, [sp, #284]	; 0x11c
 80017b0:	f88d 4122 	strb.w	r4, [sp, #290]	; 0x122
 80017b4:	f88d 4127 	strb.w	r4, [sp, #295]	; 0x127
 80017b8:	f88d 412d 	strb.w	r4, [sp, #301]	; 0x12d
 80017bc:	f88d 4132 	strb.w	r4, [sp, #306]	; 0x132
 80017c0:	f88d 4137 	strb.w	r4, [sp, #311]	; 0x137
 80017c4:	f88d 413d 	strb.w	r4, [sp, #317]	; 0x13d
 80017c8:	f88d 4142 	strb.w	r4, [sp, #322]	; 0x142
 80017cc:	f003 f9f8 	bl	8004bc0 <memset>
 80017d0:	2230      	movs	r2, #48	; 0x30
 80017d2:	2100      	movs	r1, #0
 80017d4:	a85e      	add	r0, sp, #376	; 0x178
 80017d6:	f88d 4158 	strb.w	r4, [sp, #344]	; 0x158
 80017da:	f8ad 5166 	strh.w	r5, [sp, #358]	; 0x166
 80017de:	f8ad 5168 	strh.w	r5, [sp, #360]	; 0x168
 80017e2:	f88d 416a 	strb.w	r4, [sp, #362]	; 0x16a
 80017e6:	9655      	str	r6, [sp, #340]	; 0x154
 80017e8:	f003 f9ea 	bl	8004bc0 <memset>
 80017ec:	2230      	movs	r2, #48	; 0x30
 80017ee:	2100      	movs	r1, #0
 80017f0:	a86a      	add	r0, sp, #424	; 0x1a8
 80017f2:	f88d 4186 	strb.w	r4, [sp, #390]	; 0x186
 80017f6:	f88d 418c 	strb.w	r4, [sp, #396]	; 0x18c
 80017fa:	f88d 4194 	strb.w	r4, [sp, #404]	; 0x194
 80017fe:	f88d 4198 	strb.w	r4, [sp, #408]	; 0x198
 8001802:	f88d 419e 	strb.w	r4, [sp, #414]	; 0x19e
 8001806:	9664      	str	r6, [sp, #400]	; 0x190
 8001808:	f003 f9da 	bl	8004bc0 <memset>
 800180c:	2230      	movs	r2, #48	; 0x30
 800180e:	2100      	movs	r1, #0
 8001810:	a876      	add	r0, sp, #472	; 0x1d8
 8001812:	f88d 41c4 	strb.w	r4, [sp, #452]	; 0x1c4
 8001816:	9670      	str	r6, [sp, #448]	; 0x1c0
 8001818:	f003 f9d2 	bl	8004bc0 <memset>
 800181c:	2230      	movs	r2, #48	; 0x30
 800181e:	2100      	movs	r1, #0
 8001820:	a882      	add	r0, sp, #520	; 0x208
 8001822:	f8ad 5202 	strh.w	r5, [sp, #514]	; 0x202
 8001826:	f8ad 5204 	strh.w	r5, [sp, #516]	; 0x204
 800182a:	f88d 4206 	strb.w	r4, [sp, #518]	; 0x206
 800182e:	f003 f9c7 	bl	8004bc0 <memset>
 8001832:	2230      	movs	r2, #48	; 0x30
 8001834:	2100      	movs	r1, #0
 8001836:	a88e      	add	r0, sp, #568	; 0x238
 8001838:	f88d 420e 	strb.w	r4, [sp, #526]	; 0x20e
 800183c:	f88d 4215 	strb.w	r4, [sp, #533]	; 0x215
 8001840:	f88d 4216 	strb.w	r4, [sp, #534]	; 0x216
 8001844:	f88d 421d 	strb.w	r4, [sp, #541]	; 0x21d
 8001848:	f88d 421e 	strb.w	r4, [sp, #542]	; 0x21e
 800184c:	f88d 4221 	strb.w	r4, [sp, #545]	; 0x221
 8001850:	f88d 4222 	strb.w	r4, [sp, #546]	; 0x222
 8001854:	f88d 4226 	strb.w	r4, [sp, #550]	; 0x226
 8001858:	f003 f9b2 	bl	8004bc0 <memset>
 800185c:	4b6e      	ldr	r3, [pc, #440]	; (8001a18 <KonwertujTekst+0x358>)
 800185e:	f88d 4242 	strb.w	r4, [sp, #578]	; 0x242
 8001862:	f8ad 5246 	strh.w	r5, [sp, #582]	; 0x246
 8001866:	f8ad 524a 	strh.w	r5, [sp, #586]	; 0x24a
 800186a:	f8ad 5252 	strh.w	r5, [sp, #594]	; 0x252
 800186e:	f88d 425a 	strb.w	r4, [sp, #602]	; 0x25a
 8001872:	f103 0520 	add.w	r5, r3, #32
 8001876:	ac1a      	add	r4, sp, #104	; 0x68
 8001878:	6818      	ldr	r0, [r3, #0]
 800187a:	6859      	ldr	r1, [r3, #4]
 800187c:	4622      	mov	r2, r4
 800187e:	c203      	stmia	r2!, {r0, r1}
 8001880:	3308      	adds	r3, #8
 8001882:	42ab      	cmp	r3, r5
 8001884:	4614      	mov	r4, r2
 8001886:	d1f7      	bne.n	8001878 <KonwertujTekst+0x1b8>
 8001888:	4b64      	ldr	r3, [pc, #400]	; (8001a1c <KonwertujTekst+0x35c>)
 800188a:	ac22      	add	r4, sp, #136	; 0x88
 800188c:	f103 0520 	add.w	r5, r3, #32
 8001890:	6818      	ldr	r0, [r3, #0]
 8001892:	6859      	ldr	r1, [r3, #4]
 8001894:	4622      	mov	r2, r4
 8001896:	c203      	stmia	r2!, {r0, r1}
 8001898:	3308      	adds	r3, #8
 800189a:	42ab      	cmp	r3, r5
 800189c:	4614      	mov	r4, r2
 800189e:	d1f7      	bne.n	8001890 <KonwertujTekst+0x1d0>
 80018a0:	4b5f      	ldr	r3, [pc, #380]	; (8001a20 <KonwertujTekst+0x360>)
 80018a2:	ac9a      	add	r4, sp, #616	; 0x268
 80018a4:	f103 0530 	add.w	r5, r3, #48	; 0x30
 80018a8:	6818      	ldr	r0, [r3, #0]
 80018aa:	6859      	ldr	r1, [r3, #4]
 80018ac:	4622      	mov	r2, r4
 80018ae:	c203      	stmia	r2!, {r0, r1}
 80018b0:	3308      	adds	r3, #8
 80018b2:	42ab      	cmp	r3, r5
 80018b4:	4614      	mov	r4, r2
 80018b6:	d1f7      	bne.n	80018a8 <KonwertujTekst+0x1e8>
 80018b8:	2230      	movs	r2, #48	; 0x30
 80018ba:	2100      	movs	r1, #0
 80018bc:	a8a6      	add	r0, sp, #664	; 0x298
 80018be:	f003 f97f 	bl	8004bc0 <memset>
 80018c2:	2301      	movs	r3, #1
 80018c4:	f88d 329a 	strb.w	r3, [sp, #666]	; 0x29a
 80018c8:	f88d 329f 	strb.w	r3, [sp, #671]	; 0x29f
 80018cc:	f88d 32a0 	strb.w	r3, [sp, #672]	; 0x2a0
 80018d0:	f88d 32a4 	strb.w	r3, [sp, #676]	; 0x2a4
 80018d4:	f88d 32a6 	strb.w	r3, [sp, #678]	; 0x2a6
 80018d8:	f88d 32ac 	strb.w	r3, [sp, #684]	; 0x2ac
 80018dc:	f88d 32b2 	strb.w	r3, [sp, #690]	; 0x2b2
 80018e0:	f88d 32b8 	strb.w	r3, [sp, #696]	; 0x2b8
 80018e4:	f88d 32be 	strb.w	r3, [sp, #702]	; 0x2be
 80018e8:	f88d 32c4 	strb.w	r3, [sp, #708]	; 0x2c4
 80018ec:	4b4d      	ldr	r3, [pc, #308]	; (8001a24 <KonwertujTekst+0x364>)
 80018ee:	acb2      	add	r4, sp, #712	; 0x2c8
 80018f0:	f103 0530 	add.w	r5, r3, #48	; 0x30
 80018f4:	6818      	ldr	r0, [r3, #0]
 80018f6:	6859      	ldr	r1, [r3, #4]
 80018f8:	4622      	mov	r2, r4
 80018fa:	c203      	stmia	r2!, {r0, r1}
 80018fc:	3308      	adds	r3, #8
 80018fe:	42ab      	cmp	r3, r5
 8001900:	4614      	mov	r4, r2
 8001902:	d1f7      	bne.n	80018f4 <KonwertujTekst+0x234>
 8001904:	4b48      	ldr	r3, [pc, #288]	; (8001a28 <KonwertujTekst+0x368>)
 8001906:	acbe      	add	r4, sp, #760	; 0x2f8
 8001908:	f103 0530 	add.w	r5, r3, #48	; 0x30
 800190c:	6818      	ldr	r0, [r3, #0]
 800190e:	6859      	ldr	r1, [r3, #4]
 8001910:	4622      	mov	r2, r4
 8001912:	c203      	stmia	r2!, {r0, r1}
 8001914:	3308      	adds	r3, #8
 8001916:	42ab      	cmp	r3, r5
 8001918:	4614      	mov	r4, r2
 800191a:	d1f7      	bne.n	800190c <KonwertujTekst+0x24c>
 800191c:	4b43      	ldr	r3, [pc, #268]	; (8001a2c <KonwertujTekst+0x36c>)
 800191e:	acca      	add	r4, sp, #808	; 0x328
 8001920:	f103 0530 	add.w	r5, r3, #48	; 0x30
 8001924:	6818      	ldr	r0, [r3, #0]
 8001926:	6859      	ldr	r1, [r3, #4]
 8001928:	4622      	mov	r2, r4
 800192a:	c203      	stmia	r2!, {r0, r1}
 800192c:	3308      	adds	r3, #8
 800192e:	42ab      	cmp	r3, r5
 8001930:	4614      	mov	r4, r2
 8001932:	d1f7      	bne.n	8001924 <KonwertujTekst+0x264>
 8001934:	4b3e      	ldr	r3, [pc, #248]	; (8001a30 <KonwertujTekst+0x370>)
 8001936:	acd6      	add	r4, sp, #856	; 0x358
 8001938:	f103 0530 	add.w	r5, r3, #48	; 0x30
 800193c:	6818      	ldr	r0, [r3, #0]
 800193e:	6859      	ldr	r1, [r3, #4]
 8001940:	4622      	mov	r2, r4
 8001942:	c203      	stmia	r2!, {r0, r1}
 8001944:	3308      	adds	r3, #8
 8001946:	42ab      	cmp	r3, r5
 8001948:	4614      	mov	r4, r2
 800194a:	d1f7      	bne.n	800193c <KonwertujTekst+0x27c>
 800194c:	4b39      	ldr	r3, [pc, #228]	; (8001a34 <KonwertujTekst+0x374>)
 800194e:	ace2      	add	r4, sp, #904	; 0x388
 8001950:	f103 0530 	add.w	r5, r3, #48	; 0x30
 8001954:	6818      	ldr	r0, [r3, #0]
 8001956:	6859      	ldr	r1, [r3, #4]
 8001958:	4622      	mov	r2, r4
 800195a:	c203      	stmia	r2!, {r0, r1}
 800195c:	3308      	adds	r3, #8
 800195e:	42ab      	cmp	r3, r5
 8001960:	4614      	mov	r4, r2
 8001962:	d1f7      	bne.n	8001954 <KonwertujTekst+0x294>
 8001964:	4b34      	ldr	r3, [pc, #208]	; (8001a38 <KonwertujTekst+0x378>)
 8001966:	acee      	add	r4, sp, #952	; 0x3b8
 8001968:	f103 0530 	add.w	r5, r3, #48	; 0x30
 800196c:	6818      	ldr	r0, [r3, #0]
 800196e:	6859      	ldr	r1, [r3, #4]
 8001970:	4622      	mov	r2, r4
 8001972:	c203      	stmia	r2!, {r0, r1}
 8001974:	3308      	adds	r3, #8
 8001976:	42ab      	cmp	r3, r5
 8001978:	4614      	mov	r4, r2
 800197a:	d1f7      	bne.n	800196c <KonwertujTekst+0x2ac>
 800197c:	4b2f      	ldr	r3, [pc, #188]	; (8001a3c <KonwertujTekst+0x37c>)
 800197e:	acfa      	add	r4, sp, #1000	; 0x3e8
 8001980:	f103 0530 	add.w	r5, r3, #48	; 0x30
 8001984:	6818      	ldr	r0, [r3, #0]
 8001986:	6859      	ldr	r1, [r3, #4]
 8001988:	4622      	mov	r2, r4
 800198a:	c203      	stmia	r2!, {r0, r1}
 800198c:	3308      	adds	r3, #8
 800198e:	42ab      	cmp	r3, r5
 8001990:	4614      	mov	r4, r2
 8001992:	d1f7      	bne.n	8001984 <KonwertujTekst+0x2c4>
 8001994:	4b2a      	ldr	r3, [pc, #168]	; (8001a40 <KonwertujTekst+0x380>)
 8001996:	f50d 6483 	add.w	r4, sp, #1048	; 0x418
 800199a:	f103 0530 	add.w	r5, r3, #48	; 0x30
 800199e:	6818      	ldr	r0, [r3, #0]
 80019a0:	6859      	ldr	r1, [r3, #4]
 80019a2:	4622      	mov	r2, r4
 80019a4:	c203      	stmia	r2!, {r0, r1}
 80019a6:	3308      	adds	r3, #8
 80019a8:	42ab      	cmp	r3, r5
 80019aa:	4614      	mov	r4, r2
 80019ac:	d1f7      	bne.n	800199e <KonwertujTekst+0x2de>
 80019ae:	4b25      	ldr	r3, [pc, #148]	; (8001a44 <KonwertujTekst+0x384>)
 80019b0:	f50d 6489 	add.w	r4, sp, #1096	; 0x448
 80019b4:	f103 0530 	add.w	r5, r3, #48	; 0x30
 80019b8:	6818      	ldr	r0, [r3, #0]
 80019ba:	6859      	ldr	r1, [r3, #4]
 80019bc:	4622      	mov	r2, r4
 80019be:	c203      	stmia	r2!, {r0, r1}
 80019c0:	3308      	adds	r3, #8
 80019c2:	42ab      	cmp	r3, r5
 80019c4:	4614      	mov	r4, r2
 80019c6:	d1f7      	bne.n	80019b8 <KonwertujTekst+0x2f8>
 80019c8:	4b1f      	ldr	r3, [pc, #124]	; (8001a48 <KonwertujTekst+0x388>)
 80019ca:	f50d 648f 	add.w	r4, sp, #1144	; 0x478
 80019ce:	f103 0530 	add.w	r5, r3, #48	; 0x30
 80019d2:	6818      	ldr	r0, [r3, #0]
 80019d4:	6859      	ldr	r1, [r3, #4]
 80019d6:	4622      	mov	r2, r4
 80019d8:	c203      	stmia	r2!, {r0, r1}
 80019da:	3308      	adds	r3, #8
 80019dc:	42ab      	cmp	r3, r5
 80019de:	4614      	mov	r4, r2
 80019e0:	d1f7      	bne.n	80019d2 <KonwertujTekst+0x312>
 80019e2:	4b1a      	ldr	r3, [pc, #104]	; (8001a4c <KonwertujTekst+0x38c>)
 80019e4:	f50d 6495 	add.w	r4, sp, #1192	; 0x4a8
 80019e8:	f103 0530 	add.w	r5, r3, #48	; 0x30
 80019ec:	6818      	ldr	r0, [r3, #0]
 80019ee:	6859      	ldr	r1, [r3, #4]
 80019f0:	4622      	mov	r2, r4
 80019f2:	c203      	stmia	r2!, {r0, r1}
 80019f4:	3308      	adds	r3, #8
 80019f6:	42ab      	cmp	r3, r5
 80019f8:	4614      	mov	r4, r2
 80019fa:	d1f7      	bne.n	80019ec <KonwertujTekst+0x32c>
 80019fc:	4b14      	ldr	r3, [pc, #80]	; (8001a50 <KonwertujTekst+0x390>)
 80019fe:	f50d 649b 	add.w	r4, sp, #1240	; 0x4d8
 8001a02:	f103 0530 	add.w	r5, r3, #48	; 0x30
 8001a06:	e025      	b.n	8001a54 <KonwertujTekst+0x394>
 8001a08:	08005ca8 	.word	0x08005ca8
 8001a0c:	08005ce0 	.word	0x08005ce0
 8001a10:	08005cf0 	.word	0x08005cf0
 8001a14:	08005d00 	.word	0x08005d00
 8001a18:	08005d18 	.word	0x08005d18
 8001a1c:	08005d38 	.word	0x08005d38
 8001a20:	08005d58 	.word	0x08005d58
 8001a24:	08005d88 	.word	0x08005d88
 8001a28:	08005db8 	.word	0x08005db8
 8001a2c:	08005de8 	.word	0x08005de8
 8001a30:	08005e18 	.word	0x08005e18
 8001a34:	08005e48 	.word	0x08005e48
 8001a38:	08005e78 	.word	0x08005e78
 8001a3c:	08005ea8 	.word	0x08005ea8
 8001a40:	08005ed8 	.word	0x08005ed8
 8001a44:	08005f08 	.word	0x08005f08
 8001a48:	08005f38 	.word	0x08005f38
 8001a4c:	08005f68 	.word	0x08005f68
 8001a50:	08005f98 	.word	0x08005f98
 8001a54:	6818      	ldr	r0, [r3, #0]
 8001a56:	6859      	ldr	r1, [r3, #4]
 8001a58:	4622      	mov	r2, r4
 8001a5a:	c203      	stmia	r2!, {r0, r1}
 8001a5c:	3308      	adds	r3, #8
 8001a5e:	42ab      	cmp	r3, r5
 8001a60:	4614      	mov	r4, r2
 8001a62:	d1f7      	bne.n	8001a54 <KonwertujTekst+0x394>
 8001a64:	4bcd      	ldr	r3, [pc, #820]	; (8001d9c <KonwertujTekst+0x6dc>)
 8001a66:	f50d 64a1 	add.w	r4, sp, #1288	; 0x508
 8001a6a:	f103 0530 	add.w	r5, r3, #48	; 0x30
 8001a6e:	6818      	ldr	r0, [r3, #0]
 8001a70:	6859      	ldr	r1, [r3, #4]
 8001a72:	4622      	mov	r2, r4
 8001a74:	c203      	stmia	r2!, {r0, r1}
 8001a76:	3308      	adds	r3, #8
 8001a78:	42ab      	cmp	r3, r5
 8001a7a:	4614      	mov	r4, r2
 8001a7c:	d1f7      	bne.n	8001a6e <KonwertujTekst+0x3ae>
 8001a7e:	4bc8      	ldr	r3, [pc, #800]	; (8001da0 <KonwertujTekst+0x6e0>)
 8001a80:	f50d 64a7 	add.w	r4, sp, #1336	; 0x538
 8001a84:	f103 0530 	add.w	r5, r3, #48	; 0x30
 8001a88:	6818      	ldr	r0, [r3, #0]
 8001a8a:	6859      	ldr	r1, [r3, #4]
 8001a8c:	4622      	mov	r2, r4
 8001a8e:	c203      	stmia	r2!, {r0, r1}
 8001a90:	3308      	adds	r3, #8
 8001a92:	42ab      	cmp	r3, r5
 8001a94:	4614      	mov	r4, r2
 8001a96:	d1f7      	bne.n	8001a88 <KonwertujTekst+0x3c8>
 8001a98:	4bc2      	ldr	r3, [pc, #776]	; (8001da4 <KonwertujTekst+0x6e4>)
 8001a9a:	f50d 64ad 	add.w	r4, sp, #1384	; 0x568
 8001a9e:	f103 0530 	add.w	r5, r3, #48	; 0x30
 8001aa2:	6818      	ldr	r0, [r3, #0]
 8001aa4:	6859      	ldr	r1, [r3, #4]
 8001aa6:	4622      	mov	r2, r4
 8001aa8:	c203      	stmia	r2!, {r0, r1}
 8001aaa:	3308      	adds	r3, #8
 8001aac:	42ab      	cmp	r3, r5
 8001aae:	4614      	mov	r4, r2
 8001ab0:	d1f7      	bne.n	8001aa2 <KonwertujTekst+0x3e2>
 8001ab2:	4bbd      	ldr	r3, [pc, #756]	; (8001da8 <KonwertujTekst+0x6e8>)
 8001ab4:	f50d 64b3 	add.w	r4, sp, #1432	; 0x598
 8001ab8:	f103 0530 	add.w	r5, r3, #48	; 0x30
 8001abc:	6818      	ldr	r0, [r3, #0]
 8001abe:	6859      	ldr	r1, [r3, #4]
 8001ac0:	4622      	mov	r2, r4
 8001ac2:	c203      	stmia	r2!, {r0, r1}
 8001ac4:	3308      	adds	r3, #8
 8001ac6:	42ab      	cmp	r3, r5
 8001ac8:	4614      	mov	r4, r2
 8001aca:	d1f7      	bne.n	8001abc <KonwertujTekst+0x3fc>
 8001acc:	4bb7      	ldr	r3, [pc, #732]	; (8001dac <KonwertujTekst+0x6ec>)
 8001ace:	f50d 64b9 	add.w	r4, sp, #1480	; 0x5c8
 8001ad2:	f103 0530 	add.w	r5, r3, #48	; 0x30
 8001ad6:	6818      	ldr	r0, [r3, #0]
 8001ad8:	6859      	ldr	r1, [r3, #4]
 8001ada:	4622      	mov	r2, r4
 8001adc:	c203      	stmia	r2!, {r0, r1}
 8001ade:	3308      	adds	r3, #8
 8001ae0:	42ab      	cmp	r3, r5
 8001ae2:	4614      	mov	r4, r2
 8001ae4:	d1f7      	bne.n	8001ad6 <KonwertujTekst+0x416>
 8001ae6:	4bb2      	ldr	r3, [pc, #712]	; (8001db0 <KonwertujTekst+0x6f0>)
 8001ae8:	f50d 64bf 	add.w	r4, sp, #1528	; 0x5f8
 8001aec:	f103 0530 	add.w	r5, r3, #48	; 0x30
 8001af0:	6818      	ldr	r0, [r3, #0]
 8001af2:	6859      	ldr	r1, [r3, #4]
 8001af4:	4622      	mov	r2, r4
 8001af6:	c203      	stmia	r2!, {r0, r1}
 8001af8:	3308      	adds	r3, #8
 8001afa:	42ab      	cmp	r3, r5
 8001afc:	4614      	mov	r4, r2
 8001afe:	d1f7      	bne.n	8001af0 <KonwertujTekst+0x430>
 8001b00:	4bac      	ldr	r3, [pc, #688]	; (8001db4 <KonwertujTekst+0x6f4>)
 8001b02:	f50d 64c5 	add.w	r4, sp, #1576	; 0x628
 8001b06:	f103 0530 	add.w	r5, r3, #48	; 0x30
 8001b0a:	6818      	ldr	r0, [r3, #0]
 8001b0c:	6859      	ldr	r1, [r3, #4]
 8001b0e:	4622      	mov	r2, r4
 8001b10:	c203      	stmia	r2!, {r0, r1}
 8001b12:	3308      	adds	r3, #8
 8001b14:	42ab      	cmp	r3, r5
 8001b16:	4614      	mov	r4, r2
 8001b18:	d1f7      	bne.n	8001b0a <KonwertujTekst+0x44a>
 8001b1a:	4ba7      	ldr	r3, [pc, #668]	; (8001db8 <KonwertujTekst+0x6f8>)
 8001b1c:	ac2a      	add	r4, sp, #168	; 0xa8
 8001b1e:	f103 0520 	add.w	r5, r3, #32
 8001b22:	6818      	ldr	r0, [r3, #0]
 8001b24:	6859      	ldr	r1, [r3, #4]
 8001b26:	4622      	mov	r2, r4
 8001b28:	c203      	stmia	r2!, {r0, r1}
 8001b2a:	3308      	adds	r3, #8
 8001b2c:	42ab      	cmp	r3, r5
 8001b2e:	4614      	mov	r4, r2
 8001b30:	d1f7      	bne.n	8001b22 <KonwertujTekst+0x462>
 8001b32:	4ba2      	ldr	r3, [pc, #648]	; (8001dbc <KonwertujTekst+0x6fc>)
 8001b34:	f50d 64cb 	add.w	r4, sp, #1624	; 0x658
 8001b38:	f103 0530 	add.w	r5, r3, #48	; 0x30
 8001b3c:	6818      	ldr	r0, [r3, #0]
 8001b3e:	6859      	ldr	r1, [r3, #4]
 8001b40:	4622      	mov	r2, r4
 8001b42:	c203      	stmia	r2!, {r0, r1}
 8001b44:	3308      	adds	r3, #8
 8001b46:	42ab      	cmp	r3, r5
 8001b48:	4614      	mov	r4, r2
 8001b4a:	d1f7      	bne.n	8001b3c <KonwertujTekst+0x47c>
 8001b4c:	4b9c      	ldr	r3, [pc, #624]	; (8001dc0 <KonwertujTekst+0x700>)
 8001b4e:	f50d 64d1 	add.w	r4, sp, #1672	; 0x688
 8001b52:	f103 0530 	add.w	r5, r3, #48	; 0x30
 8001b56:	6818      	ldr	r0, [r3, #0]
 8001b58:	6859      	ldr	r1, [r3, #4]
 8001b5a:	4622      	mov	r2, r4
 8001b5c:	c203      	stmia	r2!, {r0, r1}
 8001b5e:	3308      	adds	r3, #8
 8001b60:	42ab      	cmp	r3, r5
 8001b62:	4614      	mov	r4, r2
 8001b64:	d1f7      	bne.n	8001b56 <KonwertujTekst+0x496>
 8001b66:	4b97      	ldr	r3, [pc, #604]	; (8001dc4 <KonwertujTekst+0x704>)
 8001b68:	f50d 64d7 	add.w	r4, sp, #1720	; 0x6b8
 8001b6c:	f103 0530 	add.w	r5, r3, #48	; 0x30
 8001b70:	6818      	ldr	r0, [r3, #0]
 8001b72:	6859      	ldr	r1, [r3, #4]
 8001b74:	4622      	mov	r2, r4
 8001b76:	c203      	stmia	r2!, {r0, r1}
 8001b78:	3308      	adds	r3, #8
 8001b7a:	42ab      	cmp	r3, r5
 8001b7c:	4614      	mov	r4, r2
 8001b7e:	d1f7      	bne.n	8001b70 <KonwertujTekst+0x4b0>
 8001b80:	4b91      	ldr	r3, [pc, #580]	; (8001dc8 <KonwertujTekst+0x708>)
 8001b82:	f50d 64dd 	add.w	r4, sp, #1768	; 0x6e8
 8001b86:	f103 0530 	add.w	r5, r3, #48	; 0x30
 8001b8a:	6818      	ldr	r0, [r3, #0]
 8001b8c:	6859      	ldr	r1, [r3, #4]
 8001b8e:	4622      	mov	r2, r4
 8001b90:	c203      	stmia	r2!, {r0, r1}
 8001b92:	3308      	adds	r3, #8
 8001b94:	42ab      	cmp	r3, r5
 8001b96:	4614      	mov	r4, r2
 8001b98:	d1f7      	bne.n	8001b8a <KonwertujTekst+0x4ca>
 8001b9a:	4b8c      	ldr	r3, [pc, #560]	; (8001dcc <KonwertujTekst+0x70c>)
 8001b9c:	f50d 64e3 	add.w	r4, sp, #1816	; 0x718
 8001ba0:	f103 0530 	add.w	r5, r3, #48	; 0x30
 8001ba4:	6818      	ldr	r0, [r3, #0]
 8001ba6:	6859      	ldr	r1, [r3, #4]
 8001ba8:	4622      	mov	r2, r4
 8001baa:	c203      	stmia	r2!, {r0, r1}
 8001bac:	3308      	adds	r3, #8
 8001bae:	42ab      	cmp	r3, r5
 8001bb0:	4614      	mov	r4, r2
 8001bb2:	d1f7      	bne.n	8001ba4 <KonwertujTekst+0x4e4>
 8001bb4:	4b86      	ldr	r3, [pc, #536]	; (8001dd0 <KonwertujTekst+0x710>)
 8001bb6:	f50d 64e9 	add.w	r4, sp, #1864	; 0x748
 8001bba:	f103 0530 	add.w	r5, r3, #48	; 0x30
 8001bbe:	6818      	ldr	r0, [r3, #0]
 8001bc0:	6859      	ldr	r1, [r3, #4]
 8001bc2:	4622      	mov	r2, r4
 8001bc4:	c203      	stmia	r2!, {r0, r1}
 8001bc6:	3308      	adds	r3, #8
 8001bc8:	42ab      	cmp	r3, r5
 8001bca:	4614      	mov	r4, r2
 8001bcc:	d1f7      	bne.n	8001bbe <KonwertujTekst+0x4fe>
 8001bce:	4b81      	ldr	r3, [pc, #516]	; (8001dd4 <KonwertujTekst+0x714>)
 8001bd0:	f50d 64ef 	add.w	r4, sp, #1912	; 0x778
 8001bd4:	f103 0530 	add.w	r5, r3, #48	; 0x30
 8001bd8:	6818      	ldr	r0, [r3, #0]
 8001bda:	6859      	ldr	r1, [r3, #4]
 8001bdc:	4622      	mov	r2, r4
 8001bde:	c203      	stmia	r2!, {r0, r1}
 8001be0:	3308      	adds	r3, #8
 8001be2:	42ab      	cmp	r3, r5
 8001be4:	4614      	mov	r4, r2
 8001be6:	d1f7      	bne.n	8001bd8 <KonwertujTekst+0x518>
 8001be8:	4b7b      	ldr	r3, [pc, #492]	; (8001dd8 <KonwertujTekst+0x718>)
 8001bea:	f50d 64f5 	add.w	r4, sp, #1960	; 0x7a8
 8001bee:	f103 0530 	add.w	r5, r3, #48	; 0x30
 8001bf2:	6818      	ldr	r0, [r3, #0]
 8001bf4:	6859      	ldr	r1, [r3, #4]
 8001bf6:	4622      	mov	r2, r4
 8001bf8:	c203      	stmia	r2!, {r0, r1}
 8001bfa:	3308      	adds	r3, #8
 8001bfc:	42ab      	cmp	r3, r5
 8001bfe:	4614      	mov	r4, r2
 8001c00:	d1f7      	bne.n	8001bf2 <KonwertujTekst+0x532>
 8001c02:	4b76      	ldr	r3, [pc, #472]	; (8001ddc <KonwertujTekst+0x71c>)
 8001c04:	f50d 64fb 	add.w	r4, sp, #2008	; 0x7d8
 8001c08:	f103 0530 	add.w	r5, r3, #48	; 0x30
 8001c0c:	6818      	ldr	r0, [r3, #0]
 8001c0e:	6859      	ldr	r1, [r3, #4]
 8001c10:	4622      	mov	r2, r4
 8001c12:	c203      	stmia	r2!, {r0, r1}
 8001c14:	3308      	adds	r3, #8
 8001c16:	42ab      	cmp	r3, r5
 8001c18:	4614      	mov	r4, r2
 8001c1a:	d1f7      	bne.n	8001c0c <KonwertujTekst+0x54c>
 8001c1c:	4b70      	ldr	r3, [pc, #448]	; (8001de0 <KonwertujTekst+0x720>)
 8001c1e:	f60d 0408 	addw	r4, sp, #2056	; 0x808
 8001c22:	f103 0530 	add.w	r5, r3, #48	; 0x30
 8001c26:	6818      	ldr	r0, [r3, #0]
 8001c28:	6859      	ldr	r1, [r3, #4]
 8001c2a:	4622      	mov	r2, r4
 8001c2c:	c203      	stmia	r2!, {r0, r1}
 8001c2e:	3308      	adds	r3, #8
 8001c30:	42ab      	cmp	r3, r5
 8001c32:	4614      	mov	r4, r2
 8001c34:	d1f7      	bne.n	8001c26 <KonwertujTekst+0x566>
 8001c36:	4b6b      	ldr	r3, [pc, #428]	; (8001de4 <KonwertujTekst+0x724>)
 8001c38:	f60d 0438 	addw	r4, sp, #2104	; 0x838
 8001c3c:	f103 0530 	add.w	r5, r3, #48	; 0x30
 8001c40:	6818      	ldr	r0, [r3, #0]
 8001c42:	6859      	ldr	r1, [r3, #4]
 8001c44:	4622      	mov	r2, r4
 8001c46:	c203      	stmia	r2!, {r0, r1}
 8001c48:	3308      	adds	r3, #8
 8001c4a:	42ab      	cmp	r3, r5
 8001c4c:	4614      	mov	r4, r2
 8001c4e:	d1f7      	bne.n	8001c40 <KonwertujTekst+0x580>
 8001c50:	4b65      	ldr	r3, [pc, #404]	; (8001de8 <KonwertujTekst+0x728>)
 8001c52:	f60d 0468 	addw	r4, sp, #2152	; 0x868
 8001c56:	f103 0530 	add.w	r5, r3, #48	; 0x30
 8001c5a:	6818      	ldr	r0, [r3, #0]
 8001c5c:	6859      	ldr	r1, [r3, #4]
 8001c5e:	4622      	mov	r2, r4
 8001c60:	c203      	stmia	r2!, {r0, r1}
 8001c62:	3308      	adds	r3, #8
 8001c64:	42ab      	cmp	r3, r5
 8001c66:	4614      	mov	r4, r2
 8001c68:	d1f7      	bne.n	8001c5a <KonwertujTekst+0x59a>
 8001c6a:	4b60      	ldr	r3, [pc, #384]	; (8001dec <KonwertujTekst+0x72c>)
 8001c6c:	f60d 0498 	addw	r4, sp, #2200	; 0x898
 8001c70:	f103 0530 	add.w	r5, r3, #48	; 0x30
 8001c74:	6818      	ldr	r0, [r3, #0]
 8001c76:	6859      	ldr	r1, [r3, #4]
 8001c78:	4622      	mov	r2, r4
 8001c7a:	c203      	stmia	r2!, {r0, r1}
 8001c7c:	3308      	adds	r3, #8
 8001c7e:	42ab      	cmp	r3, r5
 8001c80:	4614      	mov	r4, r2
 8001c82:	d1f7      	bne.n	8001c74 <KonwertujTekst+0x5b4>
 8001c84:	4b5a      	ldr	r3, [pc, #360]	; (8001df0 <KonwertujTekst+0x730>)
 8001c86:	f60d 04c8 	addw	r4, sp, #2248	; 0x8c8
 8001c8a:	f103 0530 	add.w	r5, r3, #48	; 0x30
 8001c8e:	6818      	ldr	r0, [r3, #0]
 8001c90:	6859      	ldr	r1, [r3, #4]
 8001c92:	4622      	mov	r2, r4
 8001c94:	c203      	stmia	r2!, {r0, r1}
 8001c96:	3308      	adds	r3, #8
 8001c98:	42ab      	cmp	r3, r5
 8001c9a:	4614      	mov	r4, r2
 8001c9c:	d1f7      	bne.n	8001c8e <KonwertujTekst+0x5ce>
 8001c9e:	4b55      	ldr	r3, [pc, #340]	; (8001df4 <KonwertujTekst+0x734>)
 8001ca0:	f60d 04f8 	addw	r4, sp, #2296	; 0x8f8
 8001ca4:	f103 0530 	add.w	r5, r3, #48	; 0x30
 8001ca8:	6818      	ldr	r0, [r3, #0]
 8001caa:	6859      	ldr	r1, [r3, #4]
 8001cac:	4622      	mov	r2, r4
 8001cae:	c203      	stmia	r2!, {r0, r1}
 8001cb0:	3308      	adds	r3, #8
 8001cb2:	42ab      	cmp	r3, r5
 8001cb4:	4614      	mov	r4, r2
 8001cb6:	d1f7      	bne.n	8001ca8 <KonwertujTekst+0x5e8>
 8001cb8:	4b4f      	ldr	r3, [pc, #316]	; (8001df8 <KonwertujTekst+0x738>)
 8001cba:	f60d 1428 	addw	r4, sp, #2344	; 0x928
 8001cbe:	f103 0530 	add.w	r5, r3, #48	; 0x30
 8001cc2:	6818      	ldr	r0, [r3, #0]
 8001cc4:	6859      	ldr	r1, [r3, #4]
 8001cc6:	4622      	mov	r2, r4
 8001cc8:	c203      	stmia	r2!, {r0, r1}
 8001cca:	3308      	adds	r3, #8
 8001ccc:	42ab      	cmp	r3, r5
 8001cce:	4614      	mov	r4, r2
 8001cd0:	d1f7      	bne.n	8001cc2 <KonwertujTekst+0x602>
 8001cd2:	4b4a      	ldr	r3, [pc, #296]	; (8001dfc <KonwertujTekst+0x73c>)
 8001cd4:	f60d 1458 	addw	r4, sp, #2392	; 0x958
 8001cd8:	f103 0530 	add.w	r5, r3, #48	; 0x30
 8001cdc:	6818      	ldr	r0, [r3, #0]
 8001cde:	6859      	ldr	r1, [r3, #4]
 8001ce0:	4622      	mov	r2, r4
 8001ce2:	c203      	stmia	r2!, {r0, r1}
 8001ce4:	3308      	adds	r3, #8
 8001ce6:	42ab      	cmp	r3, r5
 8001ce8:	4614      	mov	r4, r2
 8001cea:	d1f7      	bne.n	8001cdc <KonwertujTekst+0x61c>
 8001cec:	4b44      	ldr	r3, [pc, #272]	; (8001e00 <KonwertujTekst+0x740>)
 8001cee:	f60d 1488 	addw	r4, sp, #2440	; 0x988
 8001cf2:	f103 0530 	add.w	r5, r3, #48	; 0x30
 8001cf6:	6818      	ldr	r0, [r3, #0]
 8001cf8:	6859      	ldr	r1, [r3, #4]
 8001cfa:	4622      	mov	r2, r4
 8001cfc:	c203      	stmia	r2!, {r0, r1}
 8001cfe:	3308      	adds	r3, #8
 8001d00:	42ab      	cmp	r3, r5
 8001d02:	4614      	mov	r4, r2
 8001d04:	d1f7      	bne.n	8001cf6 <KonwertujTekst+0x636>
 8001d06:	4b3f      	ldr	r3, [pc, #252]	; (8001e04 <KonwertujTekst+0x744>)
 8001d08:	f60d 14b8 	addw	r4, sp, #2488	; 0x9b8
 8001d0c:	f103 0530 	add.w	r5, r3, #48	; 0x30
 8001d10:	6818      	ldr	r0, [r3, #0]
 8001d12:	6859      	ldr	r1, [r3, #4]
 8001d14:	4622      	mov	r2, r4
 8001d16:	c203      	stmia	r2!, {r0, r1}
 8001d18:	3308      	adds	r3, #8
 8001d1a:	42ab      	cmp	r3, r5
 8001d1c:	4614      	mov	r4, r2
 8001d1e:	d1f7      	bne.n	8001d10 <KonwertujTekst+0x650>
 8001d20:	4b39      	ldr	r3, [pc, #228]	; (8001e08 <KonwertujTekst+0x748>)
 8001d22:	f60d 14e8 	addw	r4, sp, #2536	; 0x9e8
 8001d26:	f103 0530 	add.w	r5, r3, #48	; 0x30
 8001d2a:	6818      	ldr	r0, [r3, #0]
 8001d2c:	6859      	ldr	r1, [r3, #4]
 8001d2e:	4622      	mov	r2, r4
 8001d30:	c203      	stmia	r2!, {r0, r1}
 8001d32:	3308      	adds	r3, #8
 8001d34:	42ab      	cmp	r3, r5
 8001d36:	4614      	mov	r4, r2
 8001d38:	d1f7      	bne.n	8001d2a <KonwertujTekst+0x66a>
 8001d3a:	4b34      	ldr	r3, [pc, #208]	; (8001e0c <KonwertujTekst+0x74c>)
 8001d3c:	f60d 2418 	addw	r4, sp, #2584	; 0xa18
 8001d40:	f103 0530 	add.w	r5, r3, #48	; 0x30
 8001d44:	6818      	ldr	r0, [r3, #0]
 8001d46:	6859      	ldr	r1, [r3, #4]
 8001d48:	4622      	mov	r2, r4
 8001d4a:	c203      	stmia	r2!, {r0, r1}
 8001d4c:	3308      	adds	r3, #8
 8001d4e:	42ab      	cmp	r3, r5
 8001d50:	4614      	mov	r4, r2
 8001d52:	d1f7      	bne.n	8001d44 <KonwertujTekst+0x684>
 8001d54:	4b2e      	ldr	r3, [pc, #184]	; (8001e10 <KonwertujTekst+0x750>)
 8001d56:	f60d 2248 	addw	r2, sp, #2632	; 0xa48
 8001d5a:	f103 0530 	add.w	r5, r3, #48	; 0x30
 8001d5e:	4692      	mov	sl, r2
 8001d60:	6818      	ldr	r0, [r3, #0]
 8001d62:	6859      	ldr	r1, [r3, #4]
 8001d64:	4614      	mov	r4, r2
 8001d66:	c403      	stmia	r4!, {r0, r1}
 8001d68:	3308      	adds	r3, #8
 8001d6a:	42ab      	cmp	r3, r5
 8001d6c:	4622      	mov	r2, r4
 8001d6e:	d1f7      	bne.n	8001d60 <KonwertujTekst+0x6a0>
 8001d70:	4b28      	ldr	r3, [pc, #160]	; (8001e14 <KonwertujTekst+0x754>)
 8001d72:	f60d 2278 	addw	r2, sp, #2680	; 0xa78
 8001d76:	f103 0530 	add.w	r5, r3, #48	; 0x30
 8001d7a:	4693      	mov	fp, r2
 8001d7c:	6818      	ldr	r0, [r3, #0]
 8001d7e:	6859      	ldr	r1, [r3, #4]
 8001d80:	4614      	mov	r4, r2
 8001d82:	c403      	stmia	r4!, {r0, r1}
 8001d84:	3308      	adds	r3, #8
 8001d86:	42ab      	cmp	r3, r5
 8001d88:	4622      	mov	r2, r4
 8001d8a:	d1f7      	bne.n	8001d7c <KonwertujTekst+0x6bc>
 8001d8c:	2220      	movs	r2, #32
 8001d8e:	2100      	movs	r1, #0
 8001d90:	a832      	add	r0, sp, #200	; 0xc8
 8001d92:	f002 ff15 	bl	8004bc0 <memset>
 8001d96:	f8df 8080 	ldr.w	r8, [pc, #128]	; 8001e18 <KonwertujTekst+0x758>
 8001d9a:	e03f      	b.n	8001e1c <KonwertujTekst+0x75c>
 8001d9c:	08005fc8 	.word	0x08005fc8
 8001da0:	08005ff8 	.word	0x08005ff8
 8001da4:	08006028 	.word	0x08006028
 8001da8:	08006058 	.word	0x08006058
 8001dac:	08006088 	.word	0x08006088
 8001db0:	080060b8 	.word	0x080060b8
 8001db4:	080060e8 	.word	0x080060e8
 8001db8:	08006118 	.word	0x08006118
 8001dbc:	08006138 	.word	0x08006138
 8001dc0:	08006168 	.word	0x08006168
 8001dc4:	08006198 	.word	0x08006198
 8001dc8:	080061c8 	.word	0x080061c8
 8001dcc:	080061f8 	.word	0x080061f8
 8001dd0:	08006228 	.word	0x08006228
 8001dd4:	08006258 	.word	0x08006258
 8001dd8:	08006288 	.word	0x08006288
 8001ddc:	080062b8 	.word	0x080062b8
 8001de0:	080062e8 	.word	0x080062e8
 8001de4:	08006318 	.word	0x08006318
 8001de8:	08006348 	.word	0x08006348
 8001dec:	08006378 	.word	0x08006378
 8001df0:	080063a8 	.word	0x080063a8
 8001df4:	080063d8 	.word	0x080063d8
 8001df8:	08006408 	.word	0x08006408
 8001dfc:	08006438 	.word	0x08006438
 8001e00:	08006468 	.word	0x08006468
 8001e04:	08006498 	.word	0x08006498
 8001e08:	080064c8 	.word	0x080064c8
 8001e0c:	080064f8 	.word	0x080064f8
 8001e10:	08006528 	.word	0x08006528
 8001e14:	08006558 	.word	0x08006558
 8001e18:	200002f8 	.word	0x200002f8
 8001e1c:	4ca7      	ldr	r4, [pc, #668]	; (80020bc <KonwertujTekst+0x9fc>)
 8001e1e:	2600      	movs	r6, #0
 8001e20:	2506      	movs	r5, #6
 8001e22:	454e      	cmp	r6, r9
 8001e24:	dd03      	ble.n	8001e2e <KonwertujTekst+0x76e>
 8001e26:	f60d 2de4 	addw	sp, sp, #2788	; 0xae4
 8001e2a:	e8bd 8ff0 	ldmia.w	sp!, {r4, r5, r6, r7, r8, r9, sl, fp, pc}
 8001e2e:	f818 3006 	ldrb.w	r3, [r8, r6]
 8001e32:	f003 02df 	and.w	r2, r3, #223	; 0xdf
 8001e36:	2a41      	cmp	r2, #65	; 0x41
 8001e38:	d105      	bne.n	8001e46 <KonwertujTekst+0x786>
 8001e3a:	6025      	str	r5, [r4, #0]
 8001e3c:	f50d 6089 	add.w	r0, sp, #1096	; 0x448
 8001e40:	f7ff fc1c 	bl	800167c <dodajMacierzLitery>
 8001e44:	e016      	b.n	8001e74 <KonwertujTekst+0x7b4>
 8001e46:	2a42      	cmp	r2, #66	; 0x42
 8001e48:	d103      	bne.n	8001e52 <KonwertujTekst+0x792>
 8001e4a:	6025      	str	r5, [r4, #0]
 8001e4c:	f50d 6095 	add.w	r0, sp, #1192	; 0x4a8
 8001e50:	e7f6      	b.n	8001e40 <KonwertujTekst+0x780>
 8001e52:	2bc4      	cmp	r3, #196	; 0xc4
 8001e54:	f106 0701 	add.w	r7, r6, #1
 8001e58:	d117      	bne.n	8001e8a <KonwertujTekst+0x7ca>
 8001e5a:	f818 3007 	ldrb.w	r3, [r8, r7]
 8001e5e:	f103 027c 	add.w	r2, r3, #124	; 0x7c
 8001e62:	b2d2      	uxtb	r2, r2
 8001e64:	2a01      	cmp	r2, #1
 8001e66:	d807      	bhi.n	8001e78 <KonwertujTekst+0x7b8>
 8001e68:	6025      	str	r5, [r4, #0]
 8001e6a:	f50d 608f 	add.w	r0, sp, #1144	; 0x478
 8001e6e:	f7ff fc05 	bl	800167c <dodajMacierzLitery>
 8001e72:	463e      	mov	r6, r7
 8001e74:	3601      	adds	r6, #1
 8001e76:	e7d4      	b.n	8001e22 <KonwertujTekst+0x762>
 8001e78:	f103 0268 	add.w	r2, r3, #104	; 0x68
 8001e7c:	b2d2      	uxtb	r2, r2
 8001e7e:	2a01      	cmp	r2, #1
 8001e80:	d833      	bhi.n	8001eea <KonwertujTekst+0x82a>
 8001e82:	6025      	str	r5, [r4, #0]
 8001e84:	f50d 60b3 	add.w	r0, sp, #1432	; 0x598
 8001e88:	e7f1      	b.n	8001e6e <KonwertujTekst+0x7ae>
 8001e8a:	2bc5      	cmp	r3, #197	; 0xc5
 8001e8c:	f040 815b 	bne.w	8002146 <KonwertujTekst+0xa86>
 8001e90:	f818 3007 	ldrb.w	r3, [r8, r7]
 8001e94:	f103 027f 	add.w	r2, r3, #127	; 0x7f
 8001e98:	b2d2      	uxtb	r2, r2
 8001e9a:	2a01      	cmp	r2, #1
 8001e9c:	d803      	bhi.n	8001ea6 <KonwertujTekst+0x7e6>
 8001e9e:	6025      	str	r5, [r4, #0]
 8001ea0:	f50d 60dd 	add.w	r0, sp, #1768	; 0x6e8
 8001ea4:	e7e3      	b.n	8001e6e <KonwertujTekst+0x7ae>
 8001ea6:	f103 027d 	add.w	r2, r3, #125	; 0x7d
 8001eaa:	b2d2      	uxtb	r2, r2
 8001eac:	2a01      	cmp	r2, #1
 8001eae:	d803      	bhi.n	8001eb8 <KonwertujTekst+0x7f8>
 8001eb0:	6025      	str	r5, [r4, #0]
 8001eb2:	f50d 60ef 	add.w	r0, sp, #1912	; 0x778
 8001eb6:	e7da      	b.n	8001e6e <KonwertujTekst+0x7ae>
 8001eb8:	f103 0266 	add.w	r2, r3, #102	; 0x66
 8001ebc:	b2d2      	uxtb	r2, r2
 8001ebe:	2a01      	cmp	r2, #1
 8001ec0:	d803      	bhi.n	8001eca <KonwertujTekst+0x80a>
 8001ec2:	6025      	str	r5, [r4, #0]
 8001ec4:	f60d 00c8 	addw	r0, sp, #2248	; 0x8c8
 8001ec8:	e7d1      	b.n	8001e6e <KonwertujTekst+0x7ae>
 8001eca:	f103 0245 	add.w	r2, r3, #69	; 0x45
 8001ece:	b2d2      	uxtb	r2, r2
 8001ed0:	2a01      	cmp	r2, #1
 8001ed2:	d802      	bhi.n	8001eda <KonwertujTekst+0x81a>
 8001ed4:	6025      	str	r5, [r4, #0]
 8001ed6:	4658      	mov	r0, fp
 8001ed8:	e7c9      	b.n	8001e6e <KonwertujTekst+0x7ae>
 8001eda:	3347      	adds	r3, #71	; 0x47
 8001edc:	b2db      	uxtb	r3, r3
 8001ede:	2b01      	cmp	r3, #1
 8001ee0:	f200 80de 	bhi.w	80020a0 <KonwertujTekst+0x9e0>
 8001ee4:	6025      	str	r5, [r4, #0]
 8001ee6:	4650      	mov	r0, sl
 8001ee8:	e7c1      	b.n	8001e6e <KonwertujTekst+0x7ae>
 8001eea:	337a      	adds	r3, #122	; 0x7a
 8001eec:	b2db      	uxtb	r3, r3
 8001eee:	2b01      	cmp	r3, #1
 8001ef0:	f200 80d6 	bhi.w	80020a0 <KonwertujTekst+0x9e0>
 8001ef4:	6025      	str	r5, [r4, #0]
 8001ef6:	f50d 60a1 	add.w	r0, sp, #1288	; 0x508
 8001efa:	e7b8      	b.n	8001e6e <KonwertujTekst+0x7ae>
 8001efc:	2a43      	cmp	r2, #67	; 0x43
 8001efe:	d103      	bne.n	8001f08 <KonwertujTekst+0x848>
 8001f00:	6025      	str	r5, [r4, #0]
 8001f02:	f50d 609b 	add.w	r0, sp, #1240	; 0x4d8
 8001f06:	e79b      	b.n	8001e40 <KonwertujTekst+0x780>
 8001f08:	2a44      	cmp	r2, #68	; 0x44
 8001f0a:	d103      	bne.n	8001f14 <KonwertujTekst+0x854>
 8001f0c:	6025      	str	r5, [r4, #0]
 8001f0e:	f50d 60a7 	add.w	r0, sp, #1336	; 0x538
 8001f12:	e795      	b.n	8001e40 <KonwertujTekst+0x780>
 8001f14:	2a45      	cmp	r2, #69	; 0x45
 8001f16:	d103      	bne.n	8001f20 <KonwertujTekst+0x860>
 8001f18:	6025      	str	r5, [r4, #0]
 8001f1a:	f50d 60ad 	add.w	r0, sp, #1384	; 0x568
 8001f1e:	e78f      	b.n	8001e40 <KonwertujTekst+0x780>
 8001f20:	2a46      	cmp	r2, #70	; 0x46
 8001f22:	d103      	bne.n	8001f2c <KonwertujTekst+0x86c>
 8001f24:	6025      	str	r5, [r4, #0]
 8001f26:	f50d 60b9 	add.w	r0, sp, #1480	; 0x5c8
 8001f2a:	e789      	b.n	8001e40 <KonwertujTekst+0x780>
 8001f2c:	2a47      	cmp	r2, #71	; 0x47
 8001f2e:	d103      	bne.n	8001f38 <KonwertujTekst+0x878>
 8001f30:	6025      	str	r5, [r4, #0]
 8001f32:	f50d 60bf 	add.w	r0, sp, #1528	; 0x5f8
 8001f36:	e783      	b.n	8001e40 <KonwertujTekst+0x780>
 8001f38:	2a48      	cmp	r2, #72	; 0x48
 8001f3a:	d103      	bne.n	8001f44 <KonwertujTekst+0x884>
 8001f3c:	6025      	str	r5, [r4, #0]
 8001f3e:	f50d 60c5 	add.w	r0, sp, #1576	; 0x628
 8001f42:	e77d      	b.n	8001e40 <KonwertujTekst+0x780>
 8001f44:	2a49      	cmp	r2, #73	; 0x49
 8001f46:	d103      	bne.n	8001f50 <KonwertujTekst+0x890>
 8001f48:	2304      	movs	r3, #4
 8001f4a:	6023      	str	r3, [r4, #0]
 8001f4c:	a82a      	add	r0, sp, #168	; 0xa8
 8001f4e:	e777      	b.n	8001e40 <KonwertujTekst+0x780>
 8001f50:	2a4a      	cmp	r2, #74	; 0x4a
 8001f52:	d103      	bne.n	8001f5c <KonwertujTekst+0x89c>
 8001f54:	6025      	str	r5, [r4, #0]
 8001f56:	f50d 60cb 	add.w	r0, sp, #1624	; 0x658
 8001f5a:	e771      	b.n	8001e40 <KonwertujTekst+0x780>
 8001f5c:	2a4b      	cmp	r2, #75	; 0x4b
 8001f5e:	d103      	bne.n	8001f68 <KonwertujTekst+0x8a8>
 8001f60:	6025      	str	r5, [r4, #0]
 8001f62:	f50d 60d1 	add.w	r0, sp, #1672	; 0x688
 8001f66:	e76b      	b.n	8001e40 <KonwertujTekst+0x780>
 8001f68:	2a4c      	cmp	r2, #76	; 0x4c
 8001f6a:	d103      	bne.n	8001f74 <KonwertujTekst+0x8b4>
 8001f6c:	6025      	str	r5, [r4, #0]
 8001f6e:	f50d 60d7 	add.w	r0, sp, #1720	; 0x6b8
 8001f72:	e765      	b.n	8001e40 <KonwertujTekst+0x780>
 8001f74:	2a4d      	cmp	r2, #77	; 0x4d
 8001f76:	d103      	bne.n	8001f80 <KonwertujTekst+0x8c0>
 8001f78:	6025      	str	r5, [r4, #0]
 8001f7a:	f50d 60e3 	add.w	r0, sp, #1816	; 0x718
 8001f7e:	e75f      	b.n	8001e40 <KonwertujTekst+0x780>
 8001f80:	2a4e      	cmp	r2, #78	; 0x4e
 8001f82:	d103      	bne.n	8001f8c <KonwertujTekst+0x8cc>
 8001f84:	6025      	str	r5, [r4, #0]
 8001f86:	f50d 60e9 	add.w	r0, sp, #1864	; 0x748
 8001f8a:	e759      	b.n	8001e40 <KonwertujTekst+0x780>
 8001f8c:	2a4f      	cmp	r2, #79	; 0x4f
 8001f8e:	d103      	bne.n	8001f98 <KonwertujTekst+0x8d8>
 8001f90:	6025      	str	r5, [r4, #0]
 8001f92:	f50d 60f5 	add.w	r0, sp, #1960	; 0x7a8
 8001f96:	e753      	b.n	8001e40 <KonwertujTekst+0x780>
 8001f98:	2a50      	cmp	r2, #80	; 0x50
 8001f9a:	d103      	bne.n	8001fa4 <KonwertujTekst+0x8e4>
 8001f9c:	6025      	str	r5, [r4, #0]
 8001f9e:	f60d 0008 	addw	r0, sp, #2056	; 0x808
 8001fa2:	e74d      	b.n	8001e40 <KonwertujTekst+0x780>
 8001fa4:	2a51      	cmp	r2, #81	; 0x51
 8001fa6:	d103      	bne.n	8001fb0 <KonwertujTekst+0x8f0>
 8001fa8:	6025      	str	r5, [r4, #0]
 8001faa:	f60d 0038 	addw	r0, sp, #2104	; 0x838
 8001fae:	e747      	b.n	8001e40 <KonwertujTekst+0x780>
 8001fb0:	2a52      	cmp	r2, #82	; 0x52
 8001fb2:	d103      	bne.n	8001fbc <KonwertujTekst+0x8fc>
 8001fb4:	6025      	str	r5, [r4, #0]
 8001fb6:	f60d 0068 	addw	r0, sp, #2152	; 0x868
 8001fba:	e741      	b.n	8001e40 <KonwertujTekst+0x780>
 8001fbc:	2a53      	cmp	r2, #83	; 0x53
 8001fbe:	d103      	bne.n	8001fc8 <KonwertujTekst+0x908>
 8001fc0:	6025      	str	r5, [r4, #0]
 8001fc2:	f60d 0098 	addw	r0, sp, #2200	; 0x898
 8001fc6:	e73b      	b.n	8001e40 <KonwertujTekst+0x780>
 8001fc8:	2a54      	cmp	r2, #84	; 0x54
 8001fca:	d103      	bne.n	8001fd4 <KonwertujTekst+0x914>
 8001fcc:	6025      	str	r5, [r4, #0]
 8001fce:	f60d 00f8 	addw	r0, sp, #2296	; 0x8f8
 8001fd2:	e735      	b.n	8001e40 <KonwertujTekst+0x780>
 8001fd4:	2a55      	cmp	r2, #85	; 0x55
 8001fd6:	d103      	bne.n	8001fe0 <KonwertujTekst+0x920>
 8001fd8:	6025      	str	r5, [r4, #0]
 8001fda:	f60d 1028 	addw	r0, sp, #2344	; 0x928
 8001fde:	e72f      	b.n	8001e40 <KonwertujTekst+0x780>
 8001fe0:	2a56      	cmp	r2, #86	; 0x56
 8001fe2:	d103      	bne.n	8001fec <KonwertujTekst+0x92c>
 8001fe4:	6025      	str	r5, [r4, #0]
 8001fe6:	f60d 1058 	addw	r0, sp, #2392	; 0x958
 8001fea:	e729      	b.n	8001e40 <KonwertujTekst+0x780>
 8001fec:	2a57      	cmp	r2, #87	; 0x57
 8001fee:	d103      	bne.n	8001ff8 <KonwertujTekst+0x938>
 8001ff0:	6025      	str	r5, [r4, #0]
 8001ff2:	f60d 1088 	addw	r0, sp, #2440	; 0x988
 8001ff6:	e723      	b.n	8001e40 <KonwertujTekst+0x780>
 8001ff8:	2a58      	cmp	r2, #88	; 0x58
 8001ffa:	d103      	bne.n	8002004 <KonwertujTekst+0x944>
 8001ffc:	6025      	str	r5, [r4, #0]
 8001ffe:	f60d 10b8 	addw	r0, sp, #2488	; 0x9b8
 8002002:	e71d      	b.n	8001e40 <KonwertujTekst+0x780>
 8002004:	2a59      	cmp	r2, #89	; 0x59
 8002006:	d103      	bne.n	8002010 <KonwertujTekst+0x950>
 8002008:	6025      	str	r5, [r4, #0]
 800200a:	f60d 10e8 	addw	r0, sp, #2536	; 0x9e8
 800200e:	e717      	b.n	8001e40 <KonwertujTekst+0x780>
 8002010:	2a5a      	cmp	r2, #90	; 0x5a
 8002012:	d103      	bne.n	800201c <KonwertujTekst+0x95c>
 8002014:	6025      	str	r5, [r4, #0]
 8002016:	f60d 2018 	addw	r0, sp, #2584	; 0xa18
 800201a:	e711      	b.n	8001e40 <KonwertujTekst+0x780>
 800201c:	2b20      	cmp	r3, #32
 800201e:	d103      	bne.n	8002028 <KonwertujTekst+0x968>
 8002020:	2304      	movs	r3, #4
 8002022:	6023      	str	r3, [r4, #0]
 8002024:	a832      	add	r0, sp, #200	; 0xc8
 8002026:	e70b      	b.n	8001e40 <KonwertujTekst+0x780>
 8002028:	2b30      	cmp	r3, #48	; 0x30
 800202a:	d102      	bne.n	8002032 <KonwertujTekst+0x972>
 800202c:	6025      	str	r5, [r4, #0]
 800202e:	a89a      	add	r0, sp, #616	; 0x268
 8002030:	e706      	b.n	8001e40 <KonwertujTekst+0x780>
 8002032:	2b31      	cmp	r3, #49	; 0x31
 8002034:	d102      	bne.n	800203c <KonwertujTekst+0x97c>
 8002036:	6025      	str	r5, [r4, #0]
 8002038:	a8a6      	add	r0, sp, #664	; 0x298
 800203a:	e701      	b.n	8001e40 <KonwertujTekst+0x780>
 800203c:	2b32      	cmp	r3, #50	; 0x32
 800203e:	d102      	bne.n	8002046 <KonwertujTekst+0x986>
 8002040:	6025      	str	r5, [r4, #0]
 8002042:	a8b2      	add	r0, sp, #712	; 0x2c8
 8002044:	e6fc      	b.n	8001e40 <KonwertujTekst+0x780>
 8002046:	2b33      	cmp	r3, #51	; 0x33
 8002048:	d102      	bne.n	8002050 <KonwertujTekst+0x990>
 800204a:	6025      	str	r5, [r4, #0]
 800204c:	a8be      	add	r0, sp, #760	; 0x2f8
 800204e:	e6f7      	b.n	8001e40 <KonwertujTekst+0x780>
 8002050:	2b34      	cmp	r3, #52	; 0x34
 8002052:	d102      	bne.n	800205a <KonwertujTekst+0x99a>
 8002054:	6025      	str	r5, [r4, #0]
 8002056:	a8ca      	add	r0, sp, #808	; 0x328
 8002058:	e6f2      	b.n	8001e40 <KonwertujTekst+0x780>
 800205a:	2b35      	cmp	r3, #53	; 0x35
 800205c:	d102      	bne.n	8002064 <KonwertujTekst+0x9a4>
 800205e:	6025      	str	r5, [r4, #0]
 8002060:	a8d6      	add	r0, sp, #856	; 0x358
 8002062:	e6ed      	b.n	8001e40 <KonwertujTekst+0x780>
 8002064:	2b36      	cmp	r3, #54	; 0x36
 8002066:	d102      	bne.n	800206e <KonwertujTekst+0x9ae>
 8002068:	6025      	str	r5, [r4, #0]
 800206a:	a8e2      	add	r0, sp, #904	; 0x388
 800206c:	e6e8      	b.n	8001e40 <KonwertujTekst+0x780>
 800206e:	2b37      	cmp	r3, #55	; 0x37
 8002070:	d102      	bne.n	8002078 <KonwertujTekst+0x9b8>
 8002072:	6025      	str	r5, [r4, #0]
 8002074:	a8ee      	add	r0, sp, #952	; 0x3b8
 8002076:	e6e3      	b.n	8001e40 <KonwertujTekst+0x780>
 8002078:	2b38      	cmp	r3, #56	; 0x38
 800207a:	d102      	bne.n	8002082 <KonwertujTekst+0x9c2>
 800207c:	6025      	str	r5, [r4, #0]
 800207e:	a8fa      	add	r0, sp, #1000	; 0x3e8
 8002080:	e6de      	b.n	8001e40 <KonwertujTekst+0x780>
 8002082:	2b39      	cmp	r3, #57	; 0x39
 8002084:	d103      	bne.n	800208e <KonwertujTekst+0x9ce>
 8002086:	6025      	str	r5, [r4, #0]
 8002088:	f50d 6083 	add.w	r0, sp, #1048	; 0x418
 800208c:	e6d8      	b.n	8001e40 <KonwertujTekst+0x780>
 800208e:	2b25      	cmp	r3, #37	; 0x25
 8002090:	d104      	bne.n	800209c <KonwertujTekst+0x9dc>
 8002092:	2307      	movs	r3, #7
 8002094:	6023      	str	r3, [r4, #0]
 8002096:	f60d 20a8 	addw	r0, sp, #2728	; 0xaa8
 800209a:	e6d1      	b.n	8001e40 <KonwertujTekst+0x780>
 800209c:	2b3f      	cmp	r3, #63	; 0x3f
 800209e:	d102      	bne.n	80020a6 <KonwertujTekst+0x9e6>
 80020a0:	6025      	str	r5, [r4, #0]
 80020a2:	a83a      	add	r0, sp, #232	; 0xe8
 80020a4:	e6cc      	b.n	8001e40 <KonwertujTekst+0x780>
 80020a6:	2b2f      	cmp	r3, #47	; 0x2f
 80020a8:	d102      	bne.n	80020b0 <KonwertujTekst+0x9f0>
 80020aa:	6025      	str	r5, [r4, #0]
 80020ac:	a846      	add	r0, sp, #280	; 0x118
 80020ae:	e6c7      	b.n	8001e40 <KonwertujTekst+0x780>
 80020b0:	2b3e      	cmp	r3, #62	; 0x3e
 80020b2:	d105      	bne.n	80020c0 <KonwertujTekst+0xa00>
 80020b4:	6025      	str	r5, [r4, #0]
 80020b6:	a882      	add	r0, sp, #520	; 0x208
 80020b8:	e6c2      	b.n	8001e40 <KonwertujTekst+0x780>
 80020ba:	bf00      	nop
 80020bc:	200000b0 	.word	0x200000b0
 80020c0:	2b3c      	cmp	r3, #60	; 0x3c
 80020c2:	d102      	bne.n	80020ca <KonwertujTekst+0xa0a>
 80020c4:	6025      	str	r5, [r4, #0]
 80020c6:	a88e      	add	r0, sp, #568	; 0x238
 80020c8:	e6ba      	b.n	8001e40 <KonwertujTekst+0x780>
 80020ca:	2b3d      	cmp	r3, #61	; 0x3d
 80020cc:	d102      	bne.n	80020d4 <KonwertujTekst+0xa14>
 80020ce:	6025      	str	r5, [r4, #0]
 80020d0:	a852      	add	r0, sp, #328	; 0x148
 80020d2:	e6b5      	b.n	8001e40 <KonwertujTekst+0x780>
 80020d4:	2b5f      	cmp	r3, #95	; 0x5f
 80020d6:	d102      	bne.n	80020de <KonwertujTekst+0xa1e>
 80020d8:	6025      	str	r5, [r4, #0]
 80020da:	a876      	add	r0, sp, #472	; 0x1d8
 80020dc:	e6b0      	b.n	8001e40 <KonwertujTekst+0x780>
 80020de:	2b2d      	cmp	r3, #45	; 0x2d
 80020e0:	d102      	bne.n	80020e8 <KonwertujTekst+0xa28>
 80020e2:	6025      	str	r5, [r4, #0]
 80020e4:	a86a      	add	r0, sp, #424	; 0x1a8
 80020e6:	e6ab      	b.n	8001e40 <KonwertujTekst+0x780>
 80020e8:	2b2b      	cmp	r3, #43	; 0x2b
 80020ea:	d102      	bne.n	80020f2 <KonwertujTekst+0xa32>
 80020ec:	6025      	str	r5, [r4, #0]
 80020ee:	a85e      	add	r0, sp, #376	; 0x178
 80020f0:	e6a6      	b.n	8001e40 <KonwertujTekst+0x780>
 80020f2:	2b21      	cmp	r3, #33	; 0x21
 80020f4:	d103      	bne.n	80020fe <KonwertujTekst+0xa3e>
 80020f6:	2302      	movs	r3, #2
 80020f8:	6023      	str	r3, [r4, #0]
 80020fa:	a804      	add	r0, sp, #16
 80020fc:	e6a0      	b.n	8001e40 <KonwertujTekst+0x780>
 80020fe:	2b7c      	cmp	r3, #124	; 0x7c
 8002100:	d103      	bne.n	800210a <KonwertujTekst+0xa4a>
 8002102:	2302      	movs	r3, #2
 8002104:	6023      	str	r3, [r4, #0]
 8002106:	4668      	mov	r0, sp
 8002108:	e69a      	b.n	8001e40 <KonwertujTekst+0x780>
 800210a:	2b28      	cmp	r3, #40	; 0x28
 800210c:	d103      	bne.n	8002116 <KonwertujTekst+0xa56>
 800210e:	2304      	movs	r3, #4
 8002110:	6023      	str	r3, [r4, #0]
 8002112:	a81a      	add	r0, sp, #104	; 0x68
 8002114:	e694      	b.n	8001e40 <KonwertujTekst+0x780>
 8002116:	2b29      	cmp	r3, #41	; 0x29
 8002118:	d103      	bne.n	8002122 <KonwertujTekst+0xa62>
 800211a:	2304      	movs	r3, #4
 800211c:	6023      	str	r3, [r4, #0]
 800211e:	a822      	add	r0, sp, #136	; 0x88
 8002120:	e68e      	b.n	8001e40 <KonwertujTekst+0x780>
 8002122:	2b2e      	cmp	r3, #46	; 0x2e
 8002124:	d103      	bne.n	800212e <KonwertujTekst+0xa6e>
 8002126:	2303      	movs	r3, #3
 8002128:	6023      	str	r3, [r4, #0]
 800212a:	a808      	add	r0, sp, #32
 800212c:	e688      	b.n	8001e40 <KonwertujTekst+0x780>
 800212e:	2b2c      	cmp	r3, #44	; 0x2c
 8002130:	d103      	bne.n	800213a <KonwertujTekst+0xa7a>
 8002132:	2303      	movs	r3, #3
 8002134:	6023      	str	r3, [r4, #0]
 8002136:	a80e      	add	r0, sp, #56	; 0x38
 8002138:	e682      	b.n	8001e40 <KonwertujTekst+0x780>
 800213a:	2b3a      	cmp	r3, #58	; 0x3a
 800213c:	d1b0      	bne.n	80020a0 <KonwertujTekst+0x9e0>
 800213e:	2303      	movs	r3, #3
 8002140:	6023      	str	r3, [r4, #0]
 8002142:	a814      	add	r0, sp, #80	; 0x50
 8002144:	e67c      	b.n	8001e40 <KonwertujTekst+0x780>
 8002146:	2bc3      	cmp	r3, #195	; 0xc3
 8002148:	f47f aed8 	bne.w	8001efc <KonwertujTekst+0x83c>
 800214c:	f818 3007 	ldrb.w	r3, [r8, r7]
 8002150:	f003 03df 	and.w	r3, r3, #223	; 0xdf
 8002154:	2b93      	cmp	r3, #147	; 0x93
 8002156:	d1a3      	bne.n	80020a0 <KonwertujTekst+0x9e0>
 8002158:	6025      	str	r5, [r4, #0]
 800215a:	f50d 60fb 	add.w	r0, sp, #2008	; 0x7d8
 800215e:	e686      	b.n	8001e6e <KonwertujTekst+0x7ae>

08002160 <DostosujDoPrzewijania>:
 8002160:	b5f8      	push	{r3, r4, r5, r6, r7, lr}
 8002162:	4c13      	ldr	r4, [pc, #76]	; (80021b0 <DostosujDoPrzewijania+0x50>)
 8002164:	4606      	mov	r6, r0
 8002166:	f7ff fa77 	bl	8001658 <dlugoscTablicyGlownej>
 800216a:	f504 47fa 	add.w	r7, r4, #32000	; 0x7d00
 800216e:	1902      	adds	r2, r0, r4
 8002170:	00f6      	lsls	r6, r6, #3
 8002172:	4438      	add	r0, r7
 8002174:	4625      	mov	r5, r4
 8002176:	2100      	movs	r1, #0
 8002178:	2300      	movs	r3, #0
 800217a:	e001      	b.n	8002180 <DostosujDoPrzewijania+0x20>
 800217c:	54d1      	strb	r1, [r2, r3]
 800217e:	3301      	adds	r3, #1
 8002180:	429e      	cmp	r6, r3
 8002182:	dcfb      	bgt.n	800217c <DostosujDoPrzewijania+0x1c>
 8002184:	f502 627a 	add.w	r2, r2, #4000	; 0xfa0
 8002188:	4282      	cmp	r2, r0
 800218a:	d1f5      	bne.n	8002178 <DostosujDoPrzewijania+0x18>
 800218c:	f7ff fa64 	bl	8001658 <dlugoscTablicyGlownej>
 8002190:	182b      	adds	r3, r5, r0
 8002192:	4438      	add	r0, r7
 8002194:	2200      	movs	r2, #0
 8002196:	e002      	b.n	800219e <DostosujDoPrzewijania+0x3e>
 8002198:	5ca1      	ldrb	r1, [r4, r2]
 800219a:	5499      	strb	r1, [r3, r2]
 800219c:	3201      	adds	r2, #1
 800219e:	4296      	cmp	r6, r2
 80021a0:	dcfa      	bgt.n	8002198 <DostosujDoPrzewijania+0x38>
 80021a2:	f503 637a 	add.w	r3, r3, #4000	; 0xfa0
 80021a6:	4283      	cmp	r3, r0
 80021a8:	f504 647a 	add.w	r4, r4, #4000	; 0xfa0
 80021ac:	d1f2      	bne.n	8002194 <DostosujDoPrzewijania+0x34>
 80021ae:	bdf8      	pop	{r3, r4, r5, r6, r7, pc}
 80021b0:	20002334 	.word	0x20002334

080021b4 <write_byte>:
 80021b4:	b570      	push	{r4, r5, r6, lr}
 80021b6:	4e0c      	ldr	r6, [pc, #48]	; (80021e8 <write_byte+0x34>)
 80021b8:	4604      	mov	r4, r0
 80021ba:	2508      	movs	r5, #8
 80021bc:	2200      	movs	r2, #0
 80021be:	2120      	movs	r1, #32
 80021c0:	4630      	mov	r0, r6
 80021c2:	f000 fbbf 	bl	8002944 <HAL_GPIO_WritePin>
 80021c6:	f004 0280 	and.w	r2, r4, #128	; 0x80
 80021ca:	2180      	movs	r1, #128	; 0x80
 80021cc:	4630      	mov	r0, r6
 80021ce:	f000 fbb9 	bl	8002944 <HAL_GPIO_WritePin>
 80021d2:	2201      	movs	r2, #1
 80021d4:	2120      	movs	r1, #32
 80021d6:	4630      	mov	r0, r6
 80021d8:	0064      	lsls	r4, r4, #1
 80021da:	f000 fbb3 	bl	8002944 <HAL_GPIO_WritePin>
 80021de:	3d01      	subs	r5, #1
 80021e0:	b2e4      	uxtb	r4, r4
 80021e2:	d1eb      	bne.n	80021bc <write_byte+0x8>
 80021e4:	bd70      	pop	{r4, r5, r6, pc}
 80021e6:	bf00      	nop
 80021e8:	40020000 	.word	0x40020000
 80021ec:	00000000 	.word	0x00000000

080021f0 <ArrayToLed>:
 80021f0:	e92d 4ff0 	stmdb	sp!, {r4, r5, r6, r7, r8, r9, sl, fp, lr}
 80021f4:	ed2d 8b02 	vpush	{d8}
 80021f8:	b085      	sub	sp, #20
 80021fa:	00c3      	lsls	r3, r0, #3
 80021fc:	9300      	str	r3, [sp, #0]
 80021fe:	f103 0a01 	add.w	sl, r3, #1
 8002202:	4b33      	ldr	r3, [pc, #204]	; (80022d0 <ArrayToLed+0xe0>)
 8002204:	681b      	ldr	r3, [r3, #0]
 8002206:	2b01      	cmp	r3, #1
 8002208:	4683      	mov	fp, r0
 800220a:	460c      	mov	r4, r1
 800220c:	d102      	bne.n	8002214 <ArrayToLed+0x24>
 800220e:	f7ff fa23 	bl	8001658 <dlugoscTablicyGlownej>
 8002212:	4682      	mov	sl, r0
 8002214:	f1c4 0409 	rsb	r4, r4, #9
 8002218:	2114      	movs	r1, #20
 800221a:	ed9f 8b2b 	vldr	d8, [pc, #172]	; 80022c8 <ArrayToLed+0xd8>
 800221e:	fb01 f304 	mul.w	r3, r1, r4
 8002222:	9301      	str	r3, [sp, #4]
 8002224:	2700      	movs	r7, #0
 8002226:	9b00      	ldr	r3, [sp, #0]
 8002228:	ebaa 0303 	sub.w	r3, sl, r3
 800222c:	42bb      	cmp	r3, r7
 800222e:	dc04      	bgt.n	800223a <ArrayToLed+0x4a>
 8002230:	b005      	add	sp, #20
 8002232:	ecbd 8b02 	vpop	{d8}
 8002236:	e8bd 8ff0 	ldmia.w	sp!, {r4, r5, r6, r7, r8, r9, sl, fp, pc}
 800223a:	4b26      	ldr	r3, [pc, #152]	; (80022d4 <ArrayToLed+0xe4>)
 800223c:	443b      	add	r3, r7
 800223e:	2501      	movs	r5, #1
 8002240:	9302      	str	r3, [sp, #8]
 8002242:	2200      	movs	r2, #0
 8002244:	2140      	movs	r1, #64	; 0x40
 8002246:	4824      	ldr	r0, [pc, #144]	; (80022d8 <ArrayToLed+0xe8>)
 8002248:	f000 fb7c 	bl	8002944 <HAL_GPIO_WritePin>
 800224c:	9b02      	ldr	r3, [sp, #8]
 800224e:	f44f 667a 	mov.w	r6, #4000	; 0xfa0
 8002252:	fb06 3605 	mla	r6, r6, r5, r3
 8002256:	f04f 0800 	mov.w	r8, #0
 800225a:	45d8      	cmp	r8, fp
 800225c:	db0c      	blt.n	8002278 <ArrayToLed+0x88>
 800225e:	2201      	movs	r2, #1
 8002260:	2140      	movs	r1, #64	; 0x40
 8002262:	481d      	ldr	r0, [pc, #116]	; (80022d8 <ArrayToLed+0xe8>)
 8002264:	3501      	adds	r5, #1
 8002266:	f000 fb6d 	bl	8002944 <HAL_GPIO_WritePin>
 800226a:	2d09      	cmp	r5, #9
 800226c:	d1e9      	bne.n	8002242 <ArrayToLed+0x52>
 800226e:	9801      	ldr	r0, [sp, #4]
 8002270:	f000 fa2a 	bl	80026c8 <HAL_Delay>
 8002274:	3701      	adds	r7, #1
 8002276:	e7d6      	b.n	8002226 <ArrayToLed+0x36>
 8002278:	2400      	movs	r4, #0
 800227a:	46a1      	mov	r9, r4
 800227c:	5d32      	ldrb	r2, [r6, r4]
 800227e:	9203      	str	r2, [sp, #12]
 8002280:	f1c4 0007 	rsb	r0, r4, #7
 8002284:	f7fe f902 	bl	800048c <__aeabi_i2d>
 8002288:	eeb0 0a48 	vmov.f32	s0, s16
 800228c:	eef0 0a68 	vmov.f32	s1, s17
 8002290:	ec41 0b11 	vmov	d1, r0, r1
 8002294:	f002 fca4 	bl	8004be0 <pow>
 8002298:	ec51 0b10 	vmov	r0, r1, d0
 800229c:	f7fe fc10 	bl	8000ac0 <__aeabi_d2iz>
 80022a0:	9a03      	ldr	r2, [sp, #12]
 80022a2:	3401      	adds	r4, #1
 80022a4:	fb00 9902 	mla	r9, r0, r2, r9
 80022a8:	2c08      	cmp	r4, #8
 80022aa:	f009 09ff 	and.w	r9, r9, #255	; 0xff
 80022ae:	d1e5      	bne.n	800227c <ArrayToLed+0x8c>
 80022b0:	4628      	mov	r0, r5
 80022b2:	f7ff ff7f 	bl	80021b4 <write_byte>
 80022b6:	4648      	mov	r0, r9
 80022b8:	f7ff ff7c 	bl	80021b4 <write_byte>
 80022bc:	f108 0801 	add.w	r8, r8, #1
 80022c0:	3608      	adds	r6, #8
 80022c2:	e7ca      	b.n	800225a <ArrayToLed+0x6a>
 80022c4:	f3af 8000 	nop.w
 80022c8:	00000000 	.word	0x00000000
 80022cc:	40000000 	.word	0x40000000
 80022d0:	20000004 	.word	0x20000004
 80022d4:	20001394 	.word	0x20001394
 80022d8:	40020000 	.word	0x40020000

080022dc <maxInit>:
 80022dc:	b5f8      	push	{r3, r4, r5, r6, r7, lr}
 80022de:	2200      	movs	r2, #0
 80022e0:	4606      	mov	r6, r0
 80022e2:	460f      	mov	r7, r1
 80022e4:	480b      	ldr	r0, [pc, #44]	; (8002314 <maxInit+0x38>)
 80022e6:	4d0c      	ldr	r5, [pc, #48]	; (8002318 <maxInit+0x3c>)
 80022e8:	2140      	movs	r1, #64	; 0x40
 80022ea:	f000 fb2b 	bl	8002944 <HAL_GPIO_WritePin>
 80022ee:	2400      	movs	r4, #0
 80022f0:	682b      	ldr	r3, [r5, #0]
 80022f2:	42a3      	cmp	r3, r4
 80022f4:	dc06      	bgt.n	8002304 <maxInit+0x28>
 80022f6:	2201      	movs	r2, #1
 80022f8:	2140      	movs	r1, #64	; 0x40
 80022fa:	4806      	ldr	r0, [pc, #24]	; (8002314 <maxInit+0x38>)
 80022fc:	e8bd 40f8 	ldmia.w	sp!, {r3, r4, r5, r6, r7, lr}
 8002300:	f000 bb20 	b.w	8002944 <HAL_GPIO_WritePin>
 8002304:	4630      	mov	r0, r6
 8002306:	f7ff ff55 	bl	80021b4 <write_byte>
 800230a:	4638      	mov	r0, r7
 800230c:	f7ff ff52 	bl	80021b4 <write_byte>
 8002310:	3401      	adds	r4, #1
 8002312:	e7ed      	b.n	80022f0 <maxInit+0x14>
 8002314:	40020000 	.word	0x40020000
 8002318:	200000b4 	.word	0x200000b4

0800231c <SystemClock_Config>:
 800231c:	b510      	push	{r4, lr}
 800231e:	b094      	sub	sp, #80	; 0x50
 8002320:	2214      	movs	r2, #20
 8002322:	2100      	movs	r1, #0
 8002324:	a809      	add	r0, sp, #36	; 0x24
 8002326:	f002 fc4b 	bl	8004bc0 <memset>
 800232a:	2214      	movs	r2, #20
 800232c:	2100      	movs	r1, #0
 800232e:	a803      	add	r0, sp, #12
 8002330:	f002 fc46 	bl	8004bc0 <memset>
 8002334:	2200      	movs	r2, #0
 8002336:	4b1f      	ldr	r3, [pc, #124]	; (80023b4 <SystemClock_Config+0x98>)
 8002338:	9201      	str	r2, [sp, #4]
 800233a:	6c19      	ldr	r1, [r3, #64]	; 0x40
 800233c:	f041 5180 	orr.w	r1, r1, #268435456	; 0x10000000
 8002340:	6419      	str	r1, [r3, #64]	; 0x40
 8002342:	6c1b      	ldr	r3, [r3, #64]	; 0x40
 8002344:	491c      	ldr	r1, [pc, #112]	; (80023b8 <SystemClock_Config+0x9c>)
 8002346:	f003 5380 	and.w	r3, r3, #268435456	; 0x10000000
 800234a:	9301      	str	r3, [sp, #4]
 800234c:	9b01      	ldr	r3, [sp, #4]
 800234e:	9202      	str	r2, [sp, #8]
 8002350:	680b      	ldr	r3, [r1, #0]
 8002352:	f423 4340 	bic.w	r3, r3, #49152	; 0xc000
 8002356:	f443 4300 	orr.w	r3, r3, #32768	; 0x8000
 800235a:	600b      	str	r3, [r1, #0]
 800235c:	680b      	ldr	r3, [r1, #0]
 800235e:	f403 4340 	and.w	r3, r3, #49152	; 0xc000
 8002362:	9302      	str	r3, [sp, #8]
 8002364:	9b02      	ldr	r3, [sp, #8]
 8002366:	2101      	movs	r1, #1
 8002368:	2310      	movs	r3, #16
 800236a:	2008      	movs	r0, #8
 800236c:	e9cd 130b 	strd	r1, r3, [sp, #44]	; 0x2c
 8002370:	2354      	movs	r3, #84	; 0x54
 8002372:	2402      	movs	r4, #2
 8002374:	e9cd 0310 	strd	r0, r3, [sp, #64]	; 0x40
 8002378:	2304      	movs	r3, #4
 800237a:	a808      	add	r0, sp, #32
 800237c:	9408      	str	r4, [sp, #32]
 800237e:	e9cd 420e 	strd	r4, r2, [sp, #56]	; 0x38
 8002382:	9412      	str	r4, [sp, #72]	; 0x48
 8002384:	9313      	str	r3, [sp, #76]	; 0x4c
 8002386:	f000 fae3 	bl	8002950 <HAL_RCC_OscConfig>
 800238a:	b108      	cbz	r0, 8002390 <SystemClock_Config+0x74>
 800238c:	b672      	cpsid	i
 800238e:	e7fe      	b.n	800238e <SystemClock_Config+0x72>
 8002390:	230f      	movs	r3, #15
 8002392:	e9cd 3403 	strd	r3, r4, [sp, #12]
 8002396:	f44f 5380 	mov.w	r3, #4096	; 0x1000
 800239a:	9005      	str	r0, [sp, #20]
 800239c:	e9cd 3006 	strd	r3, r0, [sp, #24]
 80023a0:	4621      	mov	r1, r4
 80023a2:	a803      	add	r0, sp, #12
 80023a4:	f000 fca8 	bl	8002cf8 <HAL_RCC_ClockConfig>
 80023a8:	b108      	cbz	r0, 80023ae <SystemClock_Config+0x92>
 80023aa:	b672      	cpsid	i
 80023ac:	e7fe      	b.n	80023ac <SystemClock_Config+0x90>
 80023ae:	b014      	add	sp, #80	; 0x50
 80023b0:	bd10      	pop	{r4, pc}
 80023b2:	bf00      	nop
 80023b4:	40023800 	.word	0x40023800
 80023b8:	40007000 	.word	0x40007000

080023bc <main>:
 80023bc:	b508      	push	{r3, lr}
 80023be:	f000 f957 	bl	8002670 <HAL_Init>
 80023c2:	f7ff ffab 	bl	800231c <SystemClock_Config>
 80023c6:	f7ff f821 	bl	800140c <MX_GPIO_Init>
 80023ca:	f000 f839 	bl	8002440 <MX_SPI2_Init>
 80023ce:	f000 ff6d 	bl	80032ac <MX_FATFS_Init>
 80023d2:	f7ff f8a5 	bl	8001520 <otworzPlikZParametrami>
 80023d6:	b108      	cbz	r0, 80023dc <main+0x20>
 80023d8:	f7ff f876 	bl	80014c8 <otworzPlikZTekstem>
 80023dc:	f7ff f916 	bl	800160c <wypelnijGlownaTablice>
 80023e0:	4812      	ldr	r0, [pc, #72]	; (800242c <main+0x70>)
 80023e2:	4c13      	ldr	r4, [pc, #76]	; (8002430 <main+0x74>)
 80023e4:	4d13      	ldr	r5, [pc, #76]	; (8002434 <main+0x78>)
 80023e6:	f7fd fef7 	bl	80001d8 <strlen>
 80023ea:	3801      	subs	r0, #1
 80023ec:	f7ff f968 	bl	80016c0 <KonwertujTekst>
 80023f0:	2100      	movs	r1, #0
 80023f2:	2009      	movs	r0, #9
 80023f4:	f7ff ff72 	bl	80022dc <maxInit>
 80023f8:	4b0f      	ldr	r3, [pc, #60]	; (8002438 <main+0x7c>)
 80023fa:	200a      	movs	r0, #10
 80023fc:	7819      	ldrb	r1, [r3, #0]
 80023fe:	f7ff ff6d 	bl	80022dc <maxInit>
 8002402:	2107      	movs	r1, #7
 8002404:	200b      	movs	r0, #11
 8002406:	f7ff ff69 	bl	80022dc <maxInit>
 800240a:	2101      	movs	r1, #1
 800240c:	200c      	movs	r0, #12
 800240e:	f7ff ff65 	bl	80022dc <maxInit>
 8002412:	2100      	movs	r1, #0
 8002414:	200f      	movs	r0, #15
 8002416:	f7ff ff61 	bl	80022dc <maxInit>
 800241a:	6820      	ldr	r0, [r4, #0]
 800241c:	f7ff fea0 	bl	8002160 <DostosujDoPrzewijania>
 8002420:	6829      	ldr	r1, [r5, #0]
 8002422:	6820      	ldr	r0, [r4, #0]
 8002424:	f7ff fee4 	bl	80021f0 <ArrayToLed>
 8002428:	e7fa      	b.n	8002420 <main+0x64>
 800242a:	bf00      	nop
 800242c:	200002f8 	.word	0x200002f8
 8002430:	200000b4 	.word	0x200000b4
 8002434:	200000bc 	.word	0x200000bc
 8002438:	200000b8 	.word	0x200000b8

0800243c <Error_Handler>:
 800243c:	b672      	cpsid	i
 800243e:	e7fe      	b.n	800243e <Error_Handler+0x2>

08002440 <MX_SPI2_Init>:
 8002440:	480e      	ldr	r0, [pc, #56]	; (800247c <MX_SPI2_Init+0x3c>)
 8002442:	4a0f      	ldr	r2, [pc, #60]	; (8002480 <MX_SPI2_Init+0x40>)
 8002444:	b508      	push	{r3, lr}
 8002446:	f44f 7382 	mov.w	r3, #260	; 0x104
 800244a:	e9c0 2300 	strd	r2, r3, [r0]
 800244e:	2300      	movs	r3, #0
 8002450:	e9c0 3302 	strd	r3, r3, [r0, #8]
 8002454:	e9c0 3304 	strd	r3, r3, [r0, #16]
 8002458:	f44f 7100 	mov.w	r1, #512	; 0x200
 800245c:	2220      	movs	r2, #32
 800245e:	e9c0 3308 	strd	r3, r3, [r0, #32]
 8002462:	6283      	str	r3, [r0, #40]	; 0x28
 8002464:	230a      	movs	r3, #10
 8002466:	e9c0 1206 	strd	r1, r2, [r0, #24]
 800246a:	62c3      	str	r3, [r0, #44]	; 0x2c
 800246c:	f000 fd46 	bl	8002efc <HAL_SPI_Init>
 8002470:	b118      	cbz	r0, 800247a <MX_SPI2_Init+0x3a>
 8002472:	e8bd 4008 	ldmia.w	sp!, {r3, lr}
 8002476:	f7ff bfe1 	b.w	800243c <Error_Handler>
 800247a:	bd08      	pop	{r3, pc}
 800247c:	2000c008 	.word	0x2000c008
 8002480:	40003800 	.word	0x40003800

08002484 <HAL_SPI_MspInit>:
 8002484:	b5f0      	push	{r4, r5, r6, r7, lr}
 8002486:	4604      	mov	r4, r0
 8002488:	b089      	sub	sp, #36	; 0x24
 800248a:	2214      	movs	r2, #20
 800248c:	2100      	movs	r1, #0
 800248e:	a803      	add	r0, sp, #12
 8002490:	f002 fb96 	bl	8004bc0 <memset>
 8002494:	6822      	ldr	r2, [r4, #0]
 8002496:	4b1f      	ldr	r3, [pc, #124]	; (8002514 <HAL_SPI_MspInit+0x90>)
 8002498:	429a      	cmp	r2, r3
 800249a:	d138      	bne.n	800250e <HAL_SPI_MspInit+0x8a>
 800249c:	f503 3300 	add.w	r3, r3, #131072	; 0x20000
 80024a0:	2400      	movs	r4, #0
 80024a2:	9400      	str	r4, [sp, #0]
 80024a4:	6c1a      	ldr	r2, [r3, #64]	; 0x40
 80024a6:	481c      	ldr	r0, [pc, #112]	; (8002518 <HAL_SPI_MspInit+0x94>)
 80024a8:	f442 4280 	orr.w	r2, r2, #16384	; 0x4000
 80024ac:	641a      	str	r2, [r3, #64]	; 0x40
 80024ae:	6c1a      	ldr	r2, [r3, #64]	; 0x40
 80024b0:	f402 4280 	and.w	r2, r2, #16384	; 0x4000
 80024b4:	9200      	str	r2, [sp, #0]
 80024b6:	9a00      	ldr	r2, [sp, #0]
 80024b8:	9401      	str	r4, [sp, #4]
 80024ba:	6b1a      	ldr	r2, [r3, #48]	; 0x30
 80024bc:	f042 0204 	orr.w	r2, r2, #4
 80024c0:	631a      	str	r2, [r3, #48]	; 0x30
 80024c2:	6b1a      	ldr	r2, [r3, #48]	; 0x30
 80024c4:	f002 0204 	and.w	r2, r2, #4
 80024c8:	9201      	str	r2, [sp, #4]
 80024ca:	9a01      	ldr	r2, [sp, #4]
 80024cc:	9402      	str	r4, [sp, #8]
 80024ce:	6b1a      	ldr	r2, [r3, #48]	; 0x30
 80024d0:	f042 0202 	orr.w	r2, r2, #2
 80024d4:	631a      	str	r2, [r3, #48]	; 0x30
 80024d6:	6b1b      	ldr	r3, [r3, #48]	; 0x30
 80024d8:	f003 0302 	and.w	r3, r3, #2
 80024dc:	9302      	str	r3, [sp, #8]
 80024de:	9b02      	ldr	r3, [sp, #8]
 80024e0:	230c      	movs	r3, #12
 80024e2:	eb0d 0103 	add.w	r1, sp, r3
 80024e6:	2702      	movs	r7, #2
 80024e8:	2603      	movs	r6, #3
 80024ea:	2505      	movs	r5, #5
 80024ec:	e9cd 3703 	strd	r3, r7, [sp, #12]
 80024f0:	e9cd 6506 	strd	r6, r5, [sp, #24]
 80024f4:	f000 f958 	bl	80027a8 <HAL_GPIO_Init>
 80024f8:	f44f 6380 	mov.w	r3, #1024	; 0x400
 80024fc:	a903      	add	r1, sp, #12
 80024fe:	4807      	ldr	r0, [pc, #28]	; (800251c <HAL_SPI_MspInit+0x98>)
 8002500:	9507      	str	r5, [sp, #28]
 8002502:	e9cd 3703 	strd	r3, r7, [sp, #12]
 8002506:	e9cd 4605 	strd	r4, r6, [sp, #20]
 800250a:	f000 f94d 	bl	80027a8 <HAL_GPIO_Init>
 800250e:	b009      	add	sp, #36	; 0x24
 8002510:	bdf0      	pop	{r4, r5, r6, r7, pc}
 8002512:	bf00      	nop
 8002514:	40003800 	.word	0x40003800
 8002518:	40020800 	.word	0x40020800
 800251c:	40020400 	.word	0x40020400

08002520 <HAL_MspInit>:
 8002520:	b082      	sub	sp, #8
 8002522:	4b0c      	ldr	r3, [pc, #48]	; (8002554 <HAL_MspInit+0x34>)
 8002524:	2100      	movs	r1, #0
 8002526:	9100      	str	r1, [sp, #0]
 8002528:	6c5a      	ldr	r2, [r3, #68]	; 0x44
 800252a:	f442 4280 	orr.w	r2, r2, #16384	; 0x4000
 800252e:	645a      	str	r2, [r3, #68]	; 0x44
 8002530:	6c5a      	ldr	r2, [r3, #68]	; 0x44
 8002532:	f402 4280 	and.w	r2, r2, #16384	; 0x4000
 8002536:	9200      	str	r2, [sp, #0]
 8002538:	9a00      	ldr	r2, [sp, #0]
 800253a:	9101      	str	r1, [sp, #4]
 800253c:	6c1a      	ldr	r2, [r3, #64]	; 0x40
 800253e:	f042 5280 	orr.w	r2, r2, #268435456	; 0x10000000
 8002542:	641a      	str	r2, [r3, #64]	; 0x40
 8002544:	6c1b      	ldr	r3, [r3, #64]	; 0x40
 8002546:	f003 5380 	and.w	r3, r3, #268435456	; 0x10000000
 800254a:	9301      	str	r3, [sp, #4]
 800254c:	9b01      	ldr	r3, [sp, #4]
 800254e:	b002      	add	sp, #8
 8002550:	4770      	bx	lr
 8002552:	bf00      	nop
 8002554:	40023800 	.word	0x40023800

08002558 <SDTimer_Handler>:
 8002558:	4a07      	ldr	r2, [pc, #28]	; (8002578 <SDTimer_Handler+0x20>)
 800255a:	7813      	ldrb	r3, [r2, #0]
 800255c:	b11b      	cbz	r3, 8002566 <SDTimer_Handler+0xe>
 800255e:	7813      	ldrb	r3, [r2, #0]
 8002560:	3b01      	subs	r3, #1
 8002562:	b2db      	uxtb	r3, r3
 8002564:	7013      	strb	r3, [r2, #0]
 8002566:	4a05      	ldr	r2, [pc, #20]	; (800257c <SDTimer_Handler+0x24>)
 8002568:	7813      	ldrb	r3, [r2, #0]
 800256a:	b11b      	cbz	r3, 8002574 <SDTimer_Handler+0x1c>
 800256c:	7813      	ldrb	r3, [r2, #0]
 800256e:	3b01      	subs	r3, #1
 8002570:	b2db      	uxtb	r3, r3
 8002572:	7013      	strb	r3, [r2, #0]
 8002574:	4770      	bx	lr
 8002576:	bf00      	nop
 8002578:	2000c061 	.word	0x2000c061
 800257c:	2000c060 	.word	0x2000c060

08002580 <NMI_Handler>:
 8002580:	e7fe      	b.n	8002580 <NMI_Handler>

08002582 <HardFault_Handler>:
 8002582:	e7fe      	b.n	8002582 <HardFault_Handler>

08002584 <MemManage_Handler>:
 8002584:	e7fe      	b.n	8002584 <MemManage_Handler>

08002586 <BusFault_Handler>:
 8002586:	e7fe      	b.n	8002586 <BusFault_Handler>

08002588 <UsageFault_Handler>:
 8002588:	e7fe      	b.n	8002588 <UsageFault_Handler>

0800258a <SVC_Handler>:
 800258a:	4770      	bx	lr

0800258c <DebugMon_Handler>:
 800258c:	4770      	bx	lr

0800258e <PendSV_Handler>:
 800258e:	4770      	bx	lr

08002590 <SysTick_Handler>:
 8002590:	b508      	push	{r3, lr}
 8002592:	4a08      	ldr	r2, [pc, #32]	; (80025b4 <SysTick_Handler+0x24>)
 8002594:	7813      	ldrb	r3, [r2, #0]
 8002596:	3301      	adds	r3, #1
 8002598:	b2db      	uxtb	r3, r3
 800259a:	7013      	strb	r3, [r2, #0]
 800259c:	7813      	ldrb	r3, [r2, #0]
 800259e:	2b09      	cmp	r3, #9
 80025a0:	d903      	bls.n	80025aa <SysTick_Handler+0x1a>
 80025a2:	2300      	movs	r3, #0
 80025a4:	7013      	strb	r3, [r2, #0]
 80025a6:	f7ff ffd7 	bl	8002558 <SDTimer_Handler>
 80025aa:	e8bd 4008 	ldmia.w	sp!, {r3, lr}
 80025ae:	f000 b879 	b.w	80026a4 <HAL_IncTick>
 80025b2:	bf00      	nop
 80025b4:	200000c0 	.word	0x200000c0

080025b8 <SystemInit>:
 80025b8:	4b05      	ldr	r3, [pc, #20]	; (80025d0 <SystemInit+0x18>)
 80025ba:	f8d3 2088 	ldr.w	r2, [r3, #136]	; 0x88
 80025be:	f442 0270 	orr.w	r2, r2, #15728640	; 0xf00000
 80025c2:	f8c3 2088 	str.w	r2, [r3, #136]	; 0x88
 80025c6:	f04f 6200 	mov.w	r2, #134217728	; 0x8000000
 80025ca:	609a      	str	r2, [r3, #8]
 80025cc:	4770      	bx	lr
 80025ce:	bf00      	nop
 80025d0:	e000ed00 	.word	0xe000ed00

080025d4 <Reset_Handler>:
 80025d4:	f8df d034 	ldr.w	sp, [pc, #52]	; 800260c <LoopFillZerobss+0x14>
 80025d8:	2100      	movs	r1, #0
 80025da:	e003      	b.n	80025e4 <LoopCopyDataInit>

080025dc <CopyDataInit>:
 80025dc:	4b0c      	ldr	r3, [pc, #48]	; (8002610 <LoopFillZerobss+0x18>)
 80025de:	585b      	ldr	r3, [r3, r1]
 80025e0:	5043      	str	r3, [r0, r1]
 80025e2:	3104      	adds	r1, #4

080025e4 <LoopCopyDataInit>:
 80025e4:	480b      	ldr	r0, [pc, #44]	; (8002614 <LoopFillZerobss+0x1c>)
 80025e6:	4b0c      	ldr	r3, [pc, #48]	; (8002618 <LoopFillZerobss+0x20>)
 80025e8:	1842      	adds	r2, r0, r1
 80025ea:	429a      	cmp	r2, r3
 80025ec:	d3f6      	bcc.n	80025dc <CopyDataInit>
 80025ee:	4a0b      	ldr	r2, [pc, #44]	; (800261c <LoopFillZerobss+0x24>)
 80025f0:	e002      	b.n	80025f8 <LoopFillZerobss>

080025f2 <FillZerobss>:
 80025f2:	2300      	movs	r3, #0
 80025f4:	f842 3b04 	str.w	r3, [r2], #4

080025f8 <LoopFillZerobss>:
 80025f8:	4b09      	ldr	r3, [pc, #36]	; (8002620 <LoopFillZerobss+0x28>)
 80025fa:	429a      	cmp	r2, r3
 80025fc:	d3f9      	bcc.n	80025f2 <FillZerobss>
 80025fe:	f7ff ffdb 	bl	80025b8 <SystemInit>
 8002602:	f002 fab9 	bl	8004b78 <__libc_init_array>
 8002606:	f7ff fed9 	bl	80023bc <main>
 800260a:	4770      	bx	lr
 800260c:	20018000 	.word	0x20018000
 8002610:	08006b50 	.word	0x08006b50
 8002614:	20000000 	.word	0x20000000
 8002618:	20000090 	.word	0x20000090
 800261c:	20000090 	.word	0x20000090
 8002620:	2000e0d8 	.word	0x2000e0d8

08002624 <ADC_IRQHandler>:
 8002624:	e7fe      	b.n	8002624 <ADC_IRQHandler>
	...

08002628 <HAL_InitTick>:
 8002628:	b538      	push	{r3, r4, r5, lr}
 800262a:	4a0e      	ldr	r2, [pc, #56]	; (8002664 <HAL_InitTick+0x3c>)
 800262c:	4b0e      	ldr	r3, [pc, #56]	; (8002668 <HAL_InitTick+0x40>)
 800262e:	4605      	mov	r5, r0
 8002630:	7818      	ldrb	r0, [r3, #0]
 8002632:	f44f 737a 	mov.w	r3, #1000	; 0x3e8
 8002636:	fbb3 f3f0 	udiv	r3, r3, r0
 800263a:	6810      	ldr	r0, [r2, #0]
 800263c:	fbb0 f0f3 	udiv	r0, r0, r3
 8002640:	f000 f89c 	bl	800277c <HAL_SYSTICK_Config>
 8002644:	4604      	mov	r4, r0
 8002646:	b958      	cbnz	r0, 8002660 <HAL_InitTick+0x38>
 8002648:	2d0f      	cmp	r5, #15
 800264a:	d809      	bhi.n	8002660 <HAL_InitTick+0x38>
 800264c:	4602      	mov	r2, r0
 800264e:	4629      	mov	r1, r5
 8002650:	f04f 30ff 	mov.w	r0, #4294967295
 8002654:	f000 f85e 	bl	8002714 <HAL_NVIC_SetPriority>
 8002658:	4b04      	ldr	r3, [pc, #16]	; (800266c <HAL_InitTick+0x44>)
 800265a:	4620      	mov	r0, r4
 800265c:	601d      	str	r5, [r3, #0]
 800265e:	bd38      	pop	{r3, r4, r5, pc}
 8002660:	2001      	movs	r0, #1
 8002662:	e7fc      	b.n	800265e <HAL_InitTick+0x36>
 8002664:	20000008 	.word	0x20000008
 8002668:	2000000c 	.word	0x2000000c
 800266c:	20000010 	.word	0x20000010

08002670 <HAL_Init>:
 8002670:	b508      	push	{r3, lr}
 8002672:	4b0b      	ldr	r3, [pc, #44]	; (80026a0 <HAL_Init+0x30>)
 8002674:	681a      	ldr	r2, [r3, #0]
 8002676:	f442 7200 	orr.w	r2, r2, #512	; 0x200
 800267a:	601a      	str	r2, [r3, #0]
 800267c:	681a      	ldr	r2, [r3, #0]
 800267e:	f442 6280 	orr.w	r2, r2, #1024	; 0x400
 8002682:	601a      	str	r2, [r3, #0]
 8002684:	681a      	ldr	r2, [r3, #0]
 8002686:	f442 7280 	orr.w	r2, r2, #256	; 0x100
 800268a:	601a      	str	r2, [r3, #0]
 800268c:	2003      	movs	r0, #3
 800268e:	f000 f82f 	bl	80026f0 <HAL_NVIC_SetPriorityGrouping>
 8002692:	2000      	movs	r0, #0
 8002694:	f7ff ffc8 	bl	8002628 <HAL_InitTick>
 8002698:	f7ff ff42 	bl	8002520 <HAL_MspInit>
 800269c:	2000      	movs	r0, #0
 800269e:	bd08      	pop	{r3, pc}
 80026a0:	40023c00 	.word	0x40023c00

080026a4 <HAL_IncTick>:
 80026a4:	4a03      	ldr	r2, [pc, #12]	; (80026b4 <HAL_IncTick+0x10>)
 80026a6:	4b04      	ldr	r3, [pc, #16]	; (80026b8 <HAL_IncTick+0x14>)
 80026a8:	6811      	ldr	r1, [r2, #0]
 80026aa:	781b      	ldrb	r3, [r3, #0]
 80026ac:	440b      	add	r3, r1
 80026ae:	6013      	str	r3, [r2, #0]
 80026b0:	4770      	bx	lr
 80026b2:	bf00      	nop
 80026b4:	2000c064 	.word	0x2000c064
 80026b8:	2000000c 	.word	0x2000000c

080026bc <HAL_GetTick>:
 80026bc:	4b01      	ldr	r3, [pc, #4]	; (80026c4 <HAL_GetTick+0x8>)
 80026be:	6818      	ldr	r0, [r3, #0]
 80026c0:	4770      	bx	lr
 80026c2:	bf00      	nop
 80026c4:	2000c064 	.word	0x2000c064

080026c8 <HAL_Delay>:
 80026c8:	b538      	push	{r3, r4, r5, lr}
 80026ca:	4604      	mov	r4, r0
 80026cc:	f7ff fff6 	bl	80026bc <HAL_GetTick>
 80026d0:	1c63      	adds	r3, r4, #1
 80026d2:	bf1c      	itt	ne
 80026d4:	4b05      	ldrne	r3, [pc, #20]	; (80026ec <HAL_Delay+0x24>)
 80026d6:	781b      	ldrbne	r3, [r3, #0]
 80026d8:	4605      	mov	r5, r0
 80026da:	bf18      	it	ne
 80026dc:	18e4      	addne	r4, r4, r3
 80026de:	f7ff ffed 	bl	80026bc <HAL_GetTick>
 80026e2:	1b40      	subs	r0, r0, r5
 80026e4:	42a0      	cmp	r0, r4
 80026e6:	d3fa      	bcc.n	80026de <HAL_Delay+0x16>
 80026e8:	bd38      	pop	{r3, r4, r5, pc}
 80026ea:	bf00      	nop
 80026ec:	2000000c 	.word	0x2000000c

080026f0 <HAL_NVIC_SetPriorityGrouping>:
 80026f0:	4a07      	ldr	r2, [pc, #28]	; (8002710 <HAL_NVIC_SetPriorityGrouping+0x20>)
 80026f2:	68d3      	ldr	r3, [r2, #12]
 80026f4:	f423 63e0 	bic.w	r3, r3, #1792	; 0x700
 80026f8:	041b      	lsls	r3, r3, #16
 80026fa:	0c1b      	lsrs	r3, r3, #16
 80026fc:	f043 63bf 	orr.w	r3, r3, #100139008	; 0x5f80000
 8002700:	0200      	lsls	r0, r0, #8
 8002702:	f443 3300 	orr.w	r3, r3, #131072	; 0x20000
 8002706:	f400 60e0 	and.w	r0, r0, #1792	; 0x700
 800270a:	4303      	orrs	r3, r0
 800270c:	60d3      	str	r3, [r2, #12]
 800270e:	4770      	bx	lr
 8002710:	e000ed00 	.word	0xe000ed00

08002714 <HAL_NVIC_SetPriority>:
 8002714:	4b17      	ldr	r3, [pc, #92]	; (8002774 <HAL_NVIC_SetPriority+0x60>)
 8002716:	b570      	push	{r4, r5, r6, lr}
 8002718:	68dc      	ldr	r4, [r3, #12]
 800271a:	f3c4 2402 	ubfx	r4, r4, #8, #3
 800271e:	f1c4 0507 	rsb	r5, r4, #7
 8002722:	2d04      	cmp	r5, #4
 8002724:	f104 0304 	add.w	r3, r4, #4
 8002728:	bf28      	it	cs
 800272a:	2504      	movcs	r5, #4
 800272c:	f04f 36ff 	mov.w	r6, #4294967295
 8002730:	2b06      	cmp	r3, #6
 8002732:	fa06 f305 	lsl.w	r3, r6, r5
 8002736:	bf8c      	ite	hi
 8002738:	3c03      	subhi	r4, #3
 800273a:	2400      	movls	r4, #0
 800273c:	ea21 0303 	bic.w	r3, r1, r3
 8002740:	40a3      	lsls	r3, r4
 8002742:	fa06 f404 	lsl.w	r4, r6, r4
 8002746:	ea22 0404 	bic.w	r4, r2, r4
 800274a:	2800      	cmp	r0, #0
 800274c:	ea43 0304 	orr.w	r3, r3, r4
 8002750:	bfa8      	it	ge
 8002752:	f100 4060 	addge.w	r0, r0, #3758096384	; 0xe0000000
 8002756:	ea4f 1303 	mov.w	r3, r3, lsl #4
 800275a:	bfbc      	itt	lt
 800275c:	f000 000f 	andlt.w	r0, r0, #15
 8002760:	4a05      	ldrlt	r2, [pc, #20]	; (8002778 <HAL_NVIC_SetPriority+0x64>)
 8002762:	b2db      	uxtb	r3, r3
 8002764:	bfaa      	itet	ge
 8002766:	f500 4061 	addge.w	r0, r0, #57600	; 0xe100
 800276a:	5413      	strblt	r3, [r2, r0]
 800276c:	f880 3300 	strbge.w	r3, [r0, #768]	; 0x300
 8002770:	bd70      	pop	{r4, r5, r6, pc}
 8002772:	bf00      	nop
 8002774:	e000ed00 	.word	0xe000ed00
 8002778:	e000ed14 	.word	0xe000ed14

0800277c <HAL_SYSTICK_Config>:
 800277c:	3801      	subs	r0, #1
 800277e:	f1b0 7f80 	cmp.w	r0, #16777216	; 0x1000000
 8002782:	d20a      	bcs.n	800279a <HAL_SYSTICK_Config+0x1e>
 8002784:	4b06      	ldr	r3, [pc, #24]	; (80027a0 <HAL_SYSTICK_Config+0x24>)
 8002786:	4a07      	ldr	r2, [pc, #28]	; (80027a4 <HAL_SYSTICK_Config+0x28>)
 8002788:	6058      	str	r0, [r3, #4]
 800278a:	21f0      	movs	r1, #240	; 0xf0
 800278c:	f882 1023 	strb.w	r1, [r2, #35]	; 0x23
 8002790:	2000      	movs	r0, #0
 8002792:	2207      	movs	r2, #7
 8002794:	6098      	str	r0, [r3, #8]
 8002796:	601a      	str	r2, [r3, #0]
 8002798:	4770      	bx	lr
 800279a:	2001      	movs	r0, #1
 800279c:	4770      	bx	lr
 800279e:	bf00      	nop
 80027a0:	e000e010 	.word	0xe000e010
 80027a4:	e000ed00 	.word	0xe000ed00

080027a8 <HAL_GPIO_Init>:
 80027a8:	e92d 4ff0 	stmdb	sp!, {r4, r5, r6, r7, r8, r9, sl, fp, lr}
 80027ac:	b085      	sub	sp, #20
 80027ae:	680b      	ldr	r3, [r1, #0]
 80027b0:	f8df 818c 	ldr.w	r8, [pc, #396]	; 8002940 <HAL_GPIO_Init+0x198>
 80027b4:	4a60      	ldr	r2, [pc, #384]	; (8002938 <HAL_GPIO_Init+0x190>)
 80027b6:	9301      	str	r3, [sp, #4]
 80027b8:	f04f 0901 	mov.w	r9, #1
 80027bc:	2300      	movs	r3, #0
 80027be:	9d01      	ldr	r5, [sp, #4]
 80027c0:	fa09 f403 	lsl.w	r4, r9, r3
 80027c4:	4025      	ands	r5, r4
 80027c6:	42ac      	cmp	r4, r5
 80027c8:	f040 80a6 	bne.w	8002918 <HAL_GPIO_Init+0x170>
 80027cc:	684c      	ldr	r4, [r1, #4]
 80027ce:	f024 0c10 	bic.w	ip, r4, #16
 80027d2:	ea4f 0e43 	mov.w	lr, r3, lsl #1
 80027d6:	2603      	movs	r6, #3
 80027d8:	f10c 37ff 	add.w	r7, ip, #4294967295
 80027dc:	fa06 f60e 	lsl.w	r6, r6, lr
 80027e0:	2f01      	cmp	r7, #1
 80027e2:	ea6f 0606 	mvn.w	r6, r6
 80027e6:	d811      	bhi.n	800280c <HAL_GPIO_Init+0x64>
 80027e8:	6887      	ldr	r7, [r0, #8]
 80027ea:	ea07 0a06 	and.w	sl, r7, r6
 80027ee:	68cf      	ldr	r7, [r1, #12]
 80027f0:	fa07 f70e 	lsl.w	r7, r7, lr
 80027f4:	ea47 070a 	orr.w	r7, r7, sl
 80027f8:	6087      	str	r7, [r0, #8]
 80027fa:	6847      	ldr	r7, [r0, #4]
 80027fc:	ea27 0a05 	bic.w	sl, r7, r5
 8002800:	f3c4 1700 	ubfx	r7, r4, #4, #1
 8002804:	409f      	lsls	r7, r3
 8002806:	ea47 070a 	orr.w	r7, r7, sl
 800280a:	6047      	str	r7, [r0, #4]
 800280c:	68c7      	ldr	r7, [r0, #12]
 800280e:	ea07 0a06 	and.w	sl, r7, r6
 8002812:	688f      	ldr	r7, [r1, #8]
 8002814:	fa07 f70e 	lsl.w	r7, r7, lr
 8002818:	ea47 070a 	orr.w	r7, r7, sl
 800281c:	f1bc 0f02 	cmp.w	ip, #2
 8002820:	60c7      	str	r7, [r0, #12]
 8002822:	d116      	bne.n	8002852 <HAL_GPIO_Init+0xaa>
 8002824:	ea4f 0ad3 	mov.w	sl, r3, lsr #3
 8002828:	eb00 0a8a 	add.w	sl, r0, sl, lsl #2
 800282c:	f003 0b07 	and.w	fp, r3, #7
 8002830:	f8da 7020 	ldr.w	r7, [sl, #32]
 8002834:	ea4f 0b8b 	mov.w	fp, fp, lsl #2
 8002838:	f04f 0c0f 	mov.w	ip, #15
 800283c:	fa0c fc0b 	lsl.w	ip, ip, fp
 8002840:	ea27 0c0c 	bic.w	ip, r7, ip
 8002844:	690f      	ldr	r7, [r1, #16]
 8002846:	fa07 f70b 	lsl.w	r7, r7, fp
 800284a:	ea47 070c 	orr.w	r7, r7, ip
 800284e:	f8ca 7020 	str.w	r7, [sl, #32]
 8002852:	6807      	ldr	r7, [r0, #0]
 8002854:	403e      	ands	r6, r7
 8002856:	f004 0703 	and.w	r7, r4, #3
 800285a:	fa07 fe0e 	lsl.w	lr, r7, lr
 800285e:	ea4e 0606 	orr.w	r6, lr, r6
 8002862:	6006      	str	r6, [r0, #0]
 8002864:	00e6      	lsls	r6, r4, #3
 8002866:	d557      	bpl.n	8002918 <HAL_GPIO_Init+0x170>
 8002868:	f04f 0b00 	mov.w	fp, #0
 800286c:	f8cd b00c 	str.w	fp, [sp, #12]
 8002870:	f8d8 7044 	ldr.w	r7, [r8, #68]	; 0x44
 8002874:	4e31      	ldr	r6, [pc, #196]	; (800293c <HAL_GPIO_Init+0x194>)
 8002876:	f447 4780 	orr.w	r7, r7, #16384	; 0x4000
 800287a:	f8c8 7044 	str.w	r7, [r8, #68]	; 0x44
 800287e:	f8d8 7044 	ldr.w	r7, [r8, #68]	; 0x44
 8002882:	f407 4780 	and.w	r7, r7, #16384	; 0x4000
 8002886:	9703      	str	r7, [sp, #12]
 8002888:	9f03      	ldr	r7, [sp, #12]
 800288a:	f023 0703 	bic.w	r7, r3, #3
 800288e:	f107 4780 	add.w	r7, r7, #1073741824	; 0x40000000
 8002892:	f507 379c 	add.w	r7, r7, #79872	; 0x13800
 8002896:	f003 0e03 	and.w	lr, r3, #3
 800289a:	f8d7 a008 	ldr.w	sl, [r7, #8]
 800289e:	ea4f 0e8e 	mov.w	lr, lr, lsl #2
 80028a2:	f04f 0c0f 	mov.w	ip, #15
 80028a6:	fa0c fc0e 	lsl.w	ip, ip, lr
 80028aa:	42b0      	cmp	r0, r6
 80028ac:	ea2a 0c0c 	bic.w	ip, sl, ip
 80028b0:	d039      	beq.n	8002926 <HAL_GPIO_Init+0x17e>
 80028b2:	f506 6680 	add.w	r6, r6, #1024	; 0x400
 80028b6:	42b0      	cmp	r0, r6
 80028b8:	d037      	beq.n	800292a <HAL_GPIO_Init+0x182>
 80028ba:	f506 6680 	add.w	r6, r6, #1024	; 0x400
 80028be:	42b0      	cmp	r0, r6
 80028c0:	d035      	beq.n	800292e <HAL_GPIO_Init+0x186>
 80028c2:	f506 6680 	add.w	r6, r6, #1024	; 0x400
 80028c6:	42b0      	cmp	r0, r6
 80028c8:	d033      	beq.n	8002932 <HAL_GPIO_Init+0x18a>
 80028ca:	f506 6680 	add.w	r6, r6, #1024	; 0x400
 80028ce:	42b0      	cmp	r0, r6
 80028d0:	bf14      	ite	ne
 80028d2:	2607      	movne	r6, #7
 80028d4:	2604      	moveq	r6, #4
 80028d6:	fa06 f60e 	lsl.w	r6, r6, lr
 80028da:	ea46 060c 	orr.w	r6, r6, ip
 80028de:	60be      	str	r6, [r7, #8]
 80028e0:	6816      	ldr	r6, [r2, #0]
 80028e2:	43ef      	mvns	r7, r5
 80028e4:	f414 3f80 	tst.w	r4, #65536	; 0x10000
 80028e8:	bf0c      	ite	eq
 80028ea:	403e      	andeq	r6, r7
 80028ec:	432e      	orrne	r6, r5
 80028ee:	6016      	str	r6, [r2, #0]
 80028f0:	6856      	ldr	r6, [r2, #4]
 80028f2:	f414 3f00 	tst.w	r4, #131072	; 0x20000
 80028f6:	bf0c      	ite	eq
 80028f8:	403e      	andeq	r6, r7
 80028fa:	432e      	orrne	r6, r5
 80028fc:	6056      	str	r6, [r2, #4]
 80028fe:	6896      	ldr	r6, [r2, #8]
 8002900:	f414 1f80 	tst.w	r4, #1048576	; 0x100000
 8002904:	bf0c      	ite	eq
 8002906:	403e      	andeq	r6, r7
 8002908:	432e      	orrne	r6, r5
 800290a:	6096      	str	r6, [r2, #8]
 800290c:	68d6      	ldr	r6, [r2, #12]
 800290e:	02a4      	lsls	r4, r4, #10
 8002910:	bf54      	ite	pl
 8002912:	403e      	andpl	r6, r7
 8002914:	432e      	orrmi	r6, r5
 8002916:	60d6      	str	r6, [r2, #12]
 8002918:	3301      	adds	r3, #1
 800291a:	2b10      	cmp	r3, #16
 800291c:	f47f af4f 	bne.w	80027be <HAL_GPIO_Init+0x16>
 8002920:	b005      	add	sp, #20
 8002922:	e8bd 8ff0 	ldmia.w	sp!, {r4, r5, r6, r7, r8, r9, sl, fp, pc}
 8002926:	465e      	mov	r6, fp
 8002928:	e7d5      	b.n	80028d6 <HAL_GPIO_Init+0x12e>
 800292a:	2601      	movs	r6, #1
 800292c:	e7d3      	b.n	80028d6 <HAL_GPIO_Init+0x12e>
 800292e:	2602      	movs	r6, #2
 8002930:	e7d1      	b.n	80028d6 <HAL_GPIO_Init+0x12e>
 8002932:	2603      	movs	r6, #3
 8002934:	e7cf      	b.n	80028d6 <HAL_GPIO_Init+0x12e>
 8002936:	bf00      	nop
 8002938:	40013c00 	.word	0x40013c00
 800293c:	40020000 	.word	0x40020000
 8002940:	40023800 	.word	0x40023800

08002944 <HAL_GPIO_WritePin>:
 8002944:	b10a      	cbz	r2, 800294a <HAL_GPIO_WritePin+0x6>
 8002946:	6181      	str	r1, [r0, #24]
 8002948:	4770      	bx	lr
 800294a:	0409      	lsls	r1, r1, #16
 800294c:	e7fb      	b.n	8002946 <HAL_GPIO_WritePin+0x2>
	...

08002950 <HAL_RCC_OscConfig>:
 8002950:	e92d 41f3 	stmdb	sp!, {r0, r1, r4, r5, r6, r7, r8, lr}
 8002954:	4604      	mov	r4, r0
 8002956:	b908      	cbnz	r0, 800295c <HAL_RCC_OscConfig+0xc>
 8002958:	2001      	movs	r0, #1
 800295a:	e03f      	b.n	80029dc <HAL_RCC_OscConfig+0x8c>
 800295c:	6803      	ldr	r3, [r0, #0]
 800295e:	07dd      	lsls	r5, r3, #31
 8002960:	d410      	bmi.n	8002984 <HAL_RCC_OscConfig+0x34>
 8002962:	6823      	ldr	r3, [r4, #0]
 8002964:	0798      	lsls	r0, r3, #30
 8002966:	d45a      	bmi.n	8002a1e <HAL_RCC_OscConfig+0xce>
 8002968:	6823      	ldr	r3, [r4, #0]
 800296a:	071a      	lsls	r2, r3, #28
 800296c:	f100 809c 	bmi.w	8002aa8 <HAL_RCC_OscConfig+0x158>
 8002970:	6823      	ldr	r3, [r4, #0]
 8002972:	075b      	lsls	r3, r3, #29
 8002974:	f100 80ba 	bmi.w	8002aec <HAL_RCC_OscConfig+0x19c>
 8002978:	69a0      	ldr	r0, [r4, #24]
 800297a:	2800      	cmp	r0, #0
 800297c:	f040 811b 	bne.w	8002bb6 <HAL_RCC_OscConfig+0x266>
 8002980:	2000      	movs	r0, #0
 8002982:	e02b      	b.n	80029dc <HAL_RCC_OscConfig+0x8c>
 8002984:	4ba7      	ldr	r3, [pc, #668]	; (8002c24 <HAL_RCC_OscConfig+0x2d4>)
 8002986:	689a      	ldr	r2, [r3, #8]
 8002988:	f002 020c 	and.w	r2, r2, #12
 800298c:	2a04      	cmp	r2, #4
 800298e:	d007      	beq.n	80029a0 <HAL_RCC_OscConfig+0x50>
 8002990:	689a      	ldr	r2, [r3, #8]
 8002992:	f002 020c 	and.w	r2, r2, #12
 8002996:	2a08      	cmp	r2, #8
 8002998:	d10a      	bne.n	80029b0 <HAL_RCC_OscConfig+0x60>
 800299a:	685b      	ldr	r3, [r3, #4]
 800299c:	0259      	lsls	r1, r3, #9
 800299e:	d507      	bpl.n	80029b0 <HAL_RCC_OscConfig+0x60>
 80029a0:	4ba0      	ldr	r3, [pc, #640]	; (8002c24 <HAL_RCC_OscConfig+0x2d4>)
 80029a2:	681b      	ldr	r3, [r3, #0]
 80029a4:	039a      	lsls	r2, r3, #14
 80029a6:	d5dc      	bpl.n	8002962 <HAL_RCC_OscConfig+0x12>
 80029a8:	6863      	ldr	r3, [r4, #4]
 80029aa:	2b00      	cmp	r3, #0
 80029ac:	d1d9      	bne.n	8002962 <HAL_RCC_OscConfig+0x12>
 80029ae:	e7d3      	b.n	8002958 <HAL_RCC_OscConfig+0x8>
 80029b0:	6863      	ldr	r3, [r4, #4]
 80029b2:	4d9c      	ldr	r5, [pc, #624]	; (8002c24 <HAL_RCC_OscConfig+0x2d4>)
 80029b4:	f5b3 3f80 	cmp.w	r3, #65536	; 0x10000
 80029b8:	d113      	bne.n	80029e2 <HAL_RCC_OscConfig+0x92>
 80029ba:	682b      	ldr	r3, [r5, #0]
 80029bc:	f443 3380 	orr.w	r3, r3, #65536	; 0x10000
 80029c0:	602b      	str	r3, [r5, #0]
 80029c2:	f7ff fe7b 	bl	80026bc <HAL_GetTick>
 80029c6:	4d97      	ldr	r5, [pc, #604]	; (8002c24 <HAL_RCC_OscConfig+0x2d4>)
 80029c8:	4606      	mov	r6, r0
 80029ca:	682b      	ldr	r3, [r5, #0]
 80029cc:	039b      	lsls	r3, r3, #14
 80029ce:	d4c8      	bmi.n	8002962 <HAL_RCC_OscConfig+0x12>
 80029d0:	f7ff fe74 	bl	80026bc <HAL_GetTick>
 80029d4:	1b80      	subs	r0, r0, r6
 80029d6:	2864      	cmp	r0, #100	; 0x64
 80029d8:	d9f7      	bls.n	80029ca <HAL_RCC_OscConfig+0x7a>
 80029da:	2003      	movs	r0, #3
 80029dc:	b002      	add	sp, #8
 80029de:	e8bd 81f0 	ldmia.w	sp!, {r4, r5, r6, r7, r8, pc}
 80029e2:	f5b3 2fa0 	cmp.w	r3, #327680	; 0x50000
 80029e6:	d104      	bne.n	80029f2 <HAL_RCC_OscConfig+0xa2>
 80029e8:	682b      	ldr	r3, [r5, #0]
 80029ea:	f443 2380 	orr.w	r3, r3, #262144	; 0x40000
 80029ee:	602b      	str	r3, [r5, #0]
 80029f0:	e7e3      	b.n	80029ba <HAL_RCC_OscConfig+0x6a>
 80029f2:	682a      	ldr	r2, [r5, #0]
 80029f4:	f422 3280 	bic.w	r2, r2, #65536	; 0x10000
 80029f8:	602a      	str	r2, [r5, #0]
 80029fa:	682a      	ldr	r2, [r5, #0]
 80029fc:	f422 2280 	bic.w	r2, r2, #262144	; 0x40000
 8002a00:	602a      	str	r2, [r5, #0]
 8002a02:	2b00      	cmp	r3, #0
 8002a04:	d1dd      	bne.n	80029c2 <HAL_RCC_OscConfig+0x72>
 8002a06:	f7ff fe59 	bl	80026bc <HAL_GetTick>
 8002a0a:	4606      	mov	r6, r0
 8002a0c:	682b      	ldr	r3, [r5, #0]
 8002a0e:	039f      	lsls	r7, r3, #14
 8002a10:	d5a7      	bpl.n	8002962 <HAL_RCC_OscConfig+0x12>
 8002a12:	f7ff fe53 	bl	80026bc <HAL_GetTick>
 8002a16:	1b80      	subs	r0, r0, r6
 8002a18:	2864      	cmp	r0, #100	; 0x64
 8002a1a:	d9f7      	bls.n	8002a0c <HAL_RCC_OscConfig+0xbc>
 8002a1c:	e7dd      	b.n	80029da <HAL_RCC_OscConfig+0x8a>
 8002a1e:	4b81      	ldr	r3, [pc, #516]	; (8002c24 <HAL_RCC_OscConfig+0x2d4>)
 8002a20:	689a      	ldr	r2, [r3, #8]
 8002a22:	f012 0f0c 	tst.w	r2, #12
 8002a26:	d007      	beq.n	8002a38 <HAL_RCC_OscConfig+0xe8>
 8002a28:	689a      	ldr	r2, [r3, #8]
 8002a2a:	f002 020c 	and.w	r2, r2, #12
 8002a2e:	2a08      	cmp	r2, #8
 8002a30:	d111      	bne.n	8002a56 <HAL_RCC_OscConfig+0x106>
 8002a32:	685b      	ldr	r3, [r3, #4]
 8002a34:	025e      	lsls	r6, r3, #9
 8002a36:	d40e      	bmi.n	8002a56 <HAL_RCC_OscConfig+0x106>
 8002a38:	4b7a      	ldr	r3, [pc, #488]	; (8002c24 <HAL_RCC_OscConfig+0x2d4>)
 8002a3a:	681a      	ldr	r2, [r3, #0]
 8002a3c:	0795      	lsls	r5, r2, #30
 8002a3e:	d502      	bpl.n	8002a46 <HAL_RCC_OscConfig+0xf6>
 8002a40:	68e2      	ldr	r2, [r4, #12]
 8002a42:	2a01      	cmp	r2, #1
 8002a44:	d188      	bne.n	8002958 <HAL_RCC_OscConfig+0x8>
 8002a46:	681a      	ldr	r2, [r3, #0]
 8002a48:	6921      	ldr	r1, [r4, #16]
 8002a4a:	f022 02f8 	bic.w	r2, r2, #248	; 0xf8
 8002a4e:	ea42 02c1 	orr.w	r2, r2, r1, lsl #3
 8002a52:	601a      	str	r2, [r3, #0]
 8002a54:	e788      	b.n	8002968 <HAL_RCC_OscConfig+0x18>
 8002a56:	68e2      	ldr	r2, [r4, #12]
 8002a58:	4b73      	ldr	r3, [pc, #460]	; (8002c28 <HAL_RCC_OscConfig+0x2d8>)
 8002a5a:	b1b2      	cbz	r2, 8002a8a <HAL_RCC_OscConfig+0x13a>
 8002a5c:	2201      	movs	r2, #1
 8002a5e:	601a      	str	r2, [r3, #0]
 8002a60:	f7ff fe2c 	bl	80026bc <HAL_GetTick>
 8002a64:	4d6f      	ldr	r5, [pc, #444]	; (8002c24 <HAL_RCC_OscConfig+0x2d4>)
 8002a66:	4606      	mov	r6, r0
 8002a68:	682b      	ldr	r3, [r5, #0]
 8002a6a:	0798      	lsls	r0, r3, #30
 8002a6c:	d507      	bpl.n	8002a7e <HAL_RCC_OscConfig+0x12e>
 8002a6e:	682b      	ldr	r3, [r5, #0]
 8002a70:	6922      	ldr	r2, [r4, #16]
 8002a72:	f023 03f8 	bic.w	r3, r3, #248	; 0xf8
 8002a76:	ea43 03c2 	orr.w	r3, r3, r2, lsl #3
 8002a7a:	602b      	str	r3, [r5, #0]
 8002a7c:	e774      	b.n	8002968 <HAL_RCC_OscConfig+0x18>
 8002a7e:	f7ff fe1d 	bl	80026bc <HAL_GetTick>
 8002a82:	1b80      	subs	r0, r0, r6
 8002a84:	2802      	cmp	r0, #2
 8002a86:	d9ef      	bls.n	8002a68 <HAL_RCC_OscConfig+0x118>
 8002a88:	e7a7      	b.n	80029da <HAL_RCC_OscConfig+0x8a>
 8002a8a:	601a      	str	r2, [r3, #0]
 8002a8c:	f7ff fe16 	bl	80026bc <HAL_GetTick>
 8002a90:	4d64      	ldr	r5, [pc, #400]	; (8002c24 <HAL_RCC_OscConfig+0x2d4>)
 8002a92:	4606      	mov	r6, r0
 8002a94:	682b      	ldr	r3, [r5, #0]
 8002a96:	0799      	lsls	r1, r3, #30
 8002a98:	f57f af66 	bpl.w	8002968 <HAL_RCC_OscConfig+0x18>
 8002a9c:	f7ff fe0e 	bl	80026bc <HAL_GetTick>
 8002aa0:	1b80      	subs	r0, r0, r6
 8002aa2:	2802      	cmp	r0, #2
 8002aa4:	d9f6      	bls.n	8002a94 <HAL_RCC_OscConfig+0x144>
 8002aa6:	e798      	b.n	80029da <HAL_RCC_OscConfig+0x8a>
 8002aa8:	6962      	ldr	r2, [r4, #20]
 8002aaa:	4b60      	ldr	r3, [pc, #384]	; (8002c2c <HAL_RCC_OscConfig+0x2dc>)
 8002aac:	b17a      	cbz	r2, 8002ace <HAL_RCC_OscConfig+0x17e>
 8002aae:	2201      	movs	r2, #1
 8002ab0:	601a      	str	r2, [r3, #0]
 8002ab2:	f7ff fe03 	bl	80026bc <HAL_GetTick>
 8002ab6:	4d5b      	ldr	r5, [pc, #364]	; (8002c24 <HAL_RCC_OscConfig+0x2d4>)
 8002ab8:	4606      	mov	r6, r0
 8002aba:	6f6b      	ldr	r3, [r5, #116]	; 0x74
 8002abc:	079f      	lsls	r7, r3, #30
 8002abe:	f53f af57 	bmi.w	8002970 <HAL_RCC_OscConfig+0x20>
 8002ac2:	f7ff fdfb 	bl	80026bc <HAL_GetTick>
 8002ac6:	1b80      	subs	r0, r0, r6
 8002ac8:	2802      	cmp	r0, #2
 8002aca:	d9f6      	bls.n	8002aba <HAL_RCC_OscConfig+0x16a>
 8002acc:	e785      	b.n	80029da <HAL_RCC_OscConfig+0x8a>
 8002ace:	601a      	str	r2, [r3, #0]
 8002ad0:	f7ff fdf4 	bl	80026bc <HAL_GetTick>
 8002ad4:	4d53      	ldr	r5, [pc, #332]	; (8002c24 <HAL_RCC_OscConfig+0x2d4>)
 8002ad6:	4606      	mov	r6, r0
 8002ad8:	6f6b      	ldr	r3, [r5, #116]	; 0x74
 8002ada:	0798      	lsls	r0, r3, #30
 8002adc:	f57f af48 	bpl.w	8002970 <HAL_RCC_OscConfig+0x20>
 8002ae0:	f7ff fdec 	bl	80026bc <HAL_GetTick>
 8002ae4:	1b80      	subs	r0, r0, r6
 8002ae6:	2802      	cmp	r0, #2
 8002ae8:	d9f6      	bls.n	8002ad8 <HAL_RCC_OscConfig+0x188>
 8002aea:	e776      	b.n	80029da <HAL_RCC_OscConfig+0x8a>
 8002aec:	4b4d      	ldr	r3, [pc, #308]	; (8002c24 <HAL_RCC_OscConfig+0x2d4>)
 8002aee:	6c1a      	ldr	r2, [r3, #64]	; 0x40
 8002af0:	f012 5280 	ands.w	r2, r2, #268435456	; 0x10000000
 8002af4:	d128      	bne.n	8002b48 <HAL_RCC_OscConfig+0x1f8>
 8002af6:	9201      	str	r2, [sp, #4]
 8002af8:	6c1a      	ldr	r2, [r3, #64]	; 0x40
 8002afa:	f042 5280 	orr.w	r2, r2, #268435456	; 0x10000000
 8002afe:	641a      	str	r2, [r3, #64]	; 0x40
 8002b00:	6c1b      	ldr	r3, [r3, #64]	; 0x40
 8002b02:	f003 5380 	and.w	r3, r3, #268435456	; 0x10000000
 8002b06:	9301      	str	r3, [sp, #4]
 8002b08:	9b01      	ldr	r3, [sp, #4]
 8002b0a:	2601      	movs	r6, #1
 8002b0c:	4d48      	ldr	r5, [pc, #288]	; (8002c30 <HAL_RCC_OscConfig+0x2e0>)
 8002b0e:	682b      	ldr	r3, [r5, #0]
 8002b10:	05d9      	lsls	r1, r3, #23
 8002b12:	d51b      	bpl.n	8002b4c <HAL_RCC_OscConfig+0x1fc>
 8002b14:	68a3      	ldr	r3, [r4, #8]
 8002b16:	4d43      	ldr	r5, [pc, #268]	; (8002c24 <HAL_RCC_OscConfig+0x2d4>)
 8002b18:	2b01      	cmp	r3, #1
 8002b1a:	d127      	bne.n	8002b6c <HAL_RCC_OscConfig+0x21c>
 8002b1c:	6f2b      	ldr	r3, [r5, #112]	; 0x70
 8002b1e:	f043 0301 	orr.w	r3, r3, #1
 8002b22:	672b      	str	r3, [r5, #112]	; 0x70
 8002b24:	f7ff fdca 	bl	80026bc <HAL_GetTick>
 8002b28:	4d3e      	ldr	r5, [pc, #248]	; (8002c24 <HAL_RCC_OscConfig+0x2d4>)
 8002b2a:	4607      	mov	r7, r0
 8002b2c:	f241 3888 	movw	r8, #5000	; 0x1388
 8002b30:	6f2b      	ldr	r3, [r5, #112]	; 0x70
 8002b32:	079b      	lsls	r3, r3, #30
 8002b34:	d539      	bpl.n	8002baa <HAL_RCC_OscConfig+0x25a>
 8002b36:	2e00      	cmp	r6, #0
 8002b38:	f43f af1e 	beq.w	8002978 <HAL_RCC_OscConfig+0x28>
 8002b3c:	4a39      	ldr	r2, [pc, #228]	; (8002c24 <HAL_RCC_OscConfig+0x2d4>)
 8002b3e:	6c13      	ldr	r3, [r2, #64]	; 0x40
 8002b40:	f023 5380 	bic.w	r3, r3, #268435456	; 0x10000000
 8002b44:	6413      	str	r3, [r2, #64]	; 0x40
 8002b46:	e717      	b.n	8002978 <HAL_RCC_OscConfig+0x28>
 8002b48:	2600      	movs	r6, #0
 8002b4a:	e7df      	b.n	8002b0c <HAL_RCC_OscConfig+0x1bc>
 8002b4c:	682b      	ldr	r3, [r5, #0]
 8002b4e:	f443 7380 	orr.w	r3, r3, #256	; 0x100
 8002b52:	602b      	str	r3, [r5, #0]
 8002b54:	f7ff fdb2 	bl	80026bc <HAL_GetTick>
 8002b58:	4607      	mov	r7, r0
 8002b5a:	682b      	ldr	r3, [r5, #0]
 8002b5c:	05da      	lsls	r2, r3, #23
 8002b5e:	d4d9      	bmi.n	8002b14 <HAL_RCC_OscConfig+0x1c4>
 8002b60:	f7ff fdac 	bl	80026bc <HAL_GetTick>
 8002b64:	1bc0      	subs	r0, r0, r7
 8002b66:	2802      	cmp	r0, #2
 8002b68:	d9f7      	bls.n	8002b5a <HAL_RCC_OscConfig+0x20a>
 8002b6a:	e736      	b.n	80029da <HAL_RCC_OscConfig+0x8a>
 8002b6c:	2b05      	cmp	r3, #5
 8002b6e:	d104      	bne.n	8002b7a <HAL_RCC_OscConfig+0x22a>
 8002b70:	6f2b      	ldr	r3, [r5, #112]	; 0x70
 8002b72:	f043 0304 	orr.w	r3, r3, #4
 8002b76:	672b      	str	r3, [r5, #112]	; 0x70
 8002b78:	e7d0      	b.n	8002b1c <HAL_RCC_OscConfig+0x1cc>
 8002b7a:	6f2a      	ldr	r2, [r5, #112]	; 0x70
 8002b7c:	f022 0201 	bic.w	r2, r2, #1
 8002b80:	672a      	str	r2, [r5, #112]	; 0x70
 8002b82:	6f2a      	ldr	r2, [r5, #112]	; 0x70
 8002b84:	f022 0204 	bic.w	r2, r2, #4
 8002b88:	672a      	str	r2, [r5, #112]	; 0x70
 8002b8a:	2b00      	cmp	r3, #0
 8002b8c:	d1ca      	bne.n	8002b24 <HAL_RCC_OscConfig+0x1d4>
 8002b8e:	f7ff fd95 	bl	80026bc <HAL_GetTick>
 8002b92:	f241 3888 	movw	r8, #5000	; 0x1388
 8002b96:	4607      	mov	r7, r0
 8002b98:	6f2b      	ldr	r3, [r5, #112]	; 0x70
 8002b9a:	0798      	lsls	r0, r3, #30
 8002b9c:	d5cb      	bpl.n	8002b36 <HAL_RCC_OscConfig+0x1e6>
 8002b9e:	f7ff fd8d 	bl	80026bc <HAL_GetTick>
 8002ba2:	1bc0      	subs	r0, r0, r7
 8002ba4:	4540      	cmp	r0, r8
 8002ba6:	d9f7      	bls.n	8002b98 <HAL_RCC_OscConfig+0x248>
 8002ba8:	e717      	b.n	80029da <HAL_RCC_OscConfig+0x8a>
 8002baa:	f7ff fd87 	bl	80026bc <HAL_GetTick>
 8002bae:	1bc0      	subs	r0, r0, r7
 8002bb0:	4540      	cmp	r0, r8
 8002bb2:	d9bd      	bls.n	8002b30 <HAL_RCC_OscConfig+0x1e0>
 8002bb4:	e711      	b.n	80029da <HAL_RCC_OscConfig+0x8a>
 8002bb6:	4d1b      	ldr	r5, [pc, #108]	; (8002c24 <HAL_RCC_OscConfig+0x2d4>)
 8002bb8:	68ab      	ldr	r3, [r5, #8]
 8002bba:	f003 030c 	and.w	r3, r3, #12
 8002bbe:	2b08      	cmp	r3, #8
 8002bc0:	d047      	beq.n	8002c52 <HAL_RCC_OscConfig+0x302>
 8002bc2:	4e1c      	ldr	r6, [pc, #112]	; (8002c34 <HAL_RCC_OscConfig+0x2e4>)
 8002bc4:	2300      	movs	r3, #0
 8002bc6:	2802      	cmp	r0, #2
 8002bc8:	6033      	str	r3, [r6, #0]
 8002bca:	d135      	bne.n	8002c38 <HAL_RCC_OscConfig+0x2e8>
 8002bcc:	f7ff fd76 	bl	80026bc <HAL_GetTick>
 8002bd0:	4607      	mov	r7, r0
 8002bd2:	682b      	ldr	r3, [r5, #0]
 8002bd4:	0199      	lsls	r1, r3, #6
 8002bd6:	d41e      	bmi.n	8002c16 <HAL_RCC_OscConfig+0x2c6>
 8002bd8:	e9d4 3207 	ldrd	r3, r2, [r4, #28]
 8002bdc:	4313      	orrs	r3, r2
 8002bde:	6a62      	ldr	r2, [r4, #36]	; 0x24
 8002be0:	ea43 1382 	orr.w	r3, r3, r2, lsl #6
 8002be4:	6ae2      	ldr	r2, [r4, #44]	; 0x2c
 8002be6:	ea43 6302 	orr.w	r3, r3, r2, lsl #24
 8002bea:	6aa2      	ldr	r2, [r4, #40]	; 0x28
 8002bec:	4c0d      	ldr	r4, [pc, #52]	; (8002c24 <HAL_RCC_OscConfig+0x2d4>)
 8002bee:	0852      	lsrs	r2, r2, #1
 8002bf0:	3a01      	subs	r2, #1
 8002bf2:	ea43 4302 	orr.w	r3, r3, r2, lsl #16
 8002bf6:	606b      	str	r3, [r5, #4]
 8002bf8:	2301      	movs	r3, #1
 8002bfa:	6033      	str	r3, [r6, #0]
 8002bfc:	f7ff fd5e 	bl	80026bc <HAL_GetTick>
 8002c00:	4605      	mov	r5, r0
 8002c02:	6823      	ldr	r3, [r4, #0]
 8002c04:	019a      	lsls	r2, r3, #6
 8002c06:	f53f aebb 	bmi.w	8002980 <HAL_RCC_OscConfig+0x30>
 8002c0a:	f7ff fd57 	bl	80026bc <HAL_GetTick>
 8002c0e:	1b40      	subs	r0, r0, r5
 8002c10:	2802      	cmp	r0, #2
 8002c12:	d9f6      	bls.n	8002c02 <HAL_RCC_OscConfig+0x2b2>
 8002c14:	e6e1      	b.n	80029da <HAL_RCC_OscConfig+0x8a>
 8002c16:	f7ff fd51 	bl	80026bc <HAL_GetTick>
 8002c1a:	1bc0      	subs	r0, r0, r7
 8002c1c:	2802      	cmp	r0, #2
 8002c1e:	d9d8      	bls.n	8002bd2 <HAL_RCC_OscConfig+0x282>
 8002c20:	e6db      	b.n	80029da <HAL_RCC_OscConfig+0x8a>
 8002c22:	bf00      	nop
 8002c24:	40023800 	.word	0x40023800
 8002c28:	42470000 	.word	0x42470000
 8002c2c:	42470e80 	.word	0x42470e80
 8002c30:	40007000 	.word	0x40007000
 8002c34:	42470060 	.word	0x42470060
 8002c38:	f7ff fd40 	bl	80026bc <HAL_GetTick>
 8002c3c:	4604      	mov	r4, r0
 8002c3e:	682b      	ldr	r3, [r5, #0]
 8002c40:	019b      	lsls	r3, r3, #6
 8002c42:	f57f ae9d 	bpl.w	8002980 <HAL_RCC_OscConfig+0x30>
 8002c46:	f7ff fd39 	bl	80026bc <HAL_GetTick>
 8002c4a:	1b00      	subs	r0, r0, r4
 8002c4c:	2802      	cmp	r0, #2
 8002c4e:	d9f6      	bls.n	8002c3e <HAL_RCC_OscConfig+0x2ee>
 8002c50:	e6c3      	b.n	80029da <HAL_RCC_OscConfig+0x8a>
 8002c52:	2801      	cmp	r0, #1
 8002c54:	f43f aec2 	beq.w	80029dc <HAL_RCC_OscConfig+0x8c>
 8002c58:	6868      	ldr	r0, [r5, #4]
 8002c5a:	69e3      	ldr	r3, [r4, #28]
 8002c5c:	f400 0280 	and.w	r2, r0, #4194304	; 0x400000
 8002c60:	429a      	cmp	r2, r3
 8002c62:	f47f ae79 	bne.w	8002958 <HAL_RCC_OscConfig+0x8>
 8002c66:	6a22      	ldr	r2, [r4, #32]
 8002c68:	f000 033f 	and.w	r3, r0, #63	; 0x3f
 8002c6c:	4293      	cmp	r3, r2
 8002c6e:	f47f ae73 	bne.w	8002958 <HAL_RCC_OscConfig+0x8>
 8002c72:	6a62      	ldr	r2, [r4, #36]	; 0x24
 8002c74:	f647 73c0 	movw	r3, #32704	; 0x7fc0
 8002c78:	4003      	ands	r3, r0
 8002c7a:	4293      	cmp	r3, r2
 8002c7c:	f47f ae6c 	bne.w	8002958 <HAL_RCC_OscConfig+0x8>
 8002c80:	6aa2      	ldr	r2, [r4, #40]	; 0x28
 8002c82:	f400 3340 	and.w	r3, r0, #196608	; 0x30000
 8002c86:	4293      	cmp	r3, r2
 8002c88:	f47f ae66 	bne.w	8002958 <HAL_RCC_OscConfig+0x8>
 8002c8c:	6ae3      	ldr	r3, [r4, #44]	; 0x2c
 8002c8e:	f000 6070 	and.w	r0, r0, #251658240	; 0xf000000
 8002c92:	1ac0      	subs	r0, r0, r3
 8002c94:	bf18      	it	ne
 8002c96:	2001      	movne	r0, #1
 8002c98:	e6a0      	b.n	80029dc <HAL_RCC_OscConfig+0x8c>
 8002c9a:	bf00      	nop

08002c9c <HAL_RCC_GetSysClockFreq>:
 8002c9c:	4913      	ldr	r1, [pc, #76]	; (8002cec <HAL_RCC_GetSysClockFreq+0x50>)
 8002c9e:	b508      	push	{r3, lr}
 8002ca0:	688b      	ldr	r3, [r1, #8]
 8002ca2:	f003 030c 	and.w	r3, r3, #12
 8002ca6:	2b04      	cmp	r3, #4
 8002ca8:	d003      	beq.n	8002cb2 <HAL_RCC_GetSysClockFreq+0x16>
 8002caa:	2b08      	cmp	r3, #8
 8002cac:	d003      	beq.n	8002cb6 <HAL_RCC_GetSysClockFreq+0x1a>
 8002cae:	4810      	ldr	r0, [pc, #64]	; (8002cf0 <HAL_RCC_GetSysClockFreq+0x54>)
 8002cb0:	e000      	b.n	8002cb4 <HAL_RCC_GetSysClockFreq+0x18>
 8002cb2:	4810      	ldr	r0, [pc, #64]	; (8002cf4 <HAL_RCC_GetSysClockFreq+0x58>)
 8002cb4:	bd08      	pop	{r3, pc}
 8002cb6:	684a      	ldr	r2, [r1, #4]
 8002cb8:	684b      	ldr	r3, [r1, #4]
 8002cba:	6849      	ldr	r1, [r1, #4]
 8002cbc:	f413 0380 	ands.w	r3, r3, #4194304	; 0x400000
 8002cc0:	bf14      	ite	ne
 8002cc2:	480c      	ldrne	r0, [pc, #48]	; (8002cf4 <HAL_RCC_GetSysClockFreq+0x58>)
 8002cc4:	480a      	ldreq	r0, [pc, #40]	; (8002cf0 <HAL_RCC_GetSysClockFreq+0x54>)
 8002cc6:	f3c1 1188 	ubfx	r1, r1, #6, #9
 8002cca:	bf18      	it	ne
 8002ccc:	2300      	movne	r3, #0
 8002cce:	f002 023f 	and.w	r2, r2, #63	; 0x3f
 8002cd2:	fba1 0100 	umull	r0, r1, r1, r0
 8002cd6:	f7fd ff1b 	bl	8000b10 <__aeabi_uldivmod>
 8002cda:	4b04      	ldr	r3, [pc, #16]	; (8002cec <HAL_RCC_GetSysClockFreq+0x50>)
 8002cdc:	685b      	ldr	r3, [r3, #4]
 8002cde:	f3c3 4301 	ubfx	r3, r3, #16, #2
 8002ce2:	3301      	adds	r3, #1
 8002ce4:	005b      	lsls	r3, r3, #1
 8002ce6:	fbb0 f0f3 	udiv	r0, r0, r3
 8002cea:	e7e3      	b.n	8002cb4 <HAL_RCC_GetSysClockFreq+0x18>
 8002cec:	40023800 	.word	0x40023800
 8002cf0:	00f42400 	.word	0x00f42400
 8002cf4:	017d7840 	.word	0x017d7840

08002cf8 <HAL_RCC_ClockConfig>:
 8002cf8:	e92d 41f0 	stmdb	sp!, {r4, r5, r6, r7, r8, lr}
 8002cfc:	460d      	mov	r5, r1
 8002cfe:	4604      	mov	r4, r0
 8002d00:	b910      	cbnz	r0, 8002d08 <HAL_RCC_ClockConfig+0x10>
 8002d02:	2001      	movs	r0, #1
 8002d04:	e8bd 81f0 	ldmia.w	sp!, {r4, r5, r6, r7, r8, pc}
 8002d08:	4b43      	ldr	r3, [pc, #268]	; (8002e18 <HAL_RCC_ClockConfig+0x120>)
 8002d0a:	681a      	ldr	r2, [r3, #0]
 8002d0c:	f002 020f 	and.w	r2, r2, #15
 8002d10:	428a      	cmp	r2, r1
 8002d12:	d328      	bcc.n	8002d66 <HAL_RCC_ClockConfig+0x6e>
 8002d14:	6821      	ldr	r1, [r4, #0]
 8002d16:	078f      	lsls	r7, r1, #30
 8002d18:	d42d      	bmi.n	8002d76 <HAL_RCC_ClockConfig+0x7e>
 8002d1a:	07c8      	lsls	r0, r1, #31
 8002d1c:	d440      	bmi.n	8002da0 <HAL_RCC_ClockConfig+0xa8>
 8002d1e:	4b3e      	ldr	r3, [pc, #248]	; (8002e18 <HAL_RCC_ClockConfig+0x120>)
 8002d20:	681a      	ldr	r2, [r3, #0]
 8002d22:	f002 020f 	and.w	r2, r2, #15
 8002d26:	42aa      	cmp	r2, r5
 8002d28:	d865      	bhi.n	8002df6 <HAL_RCC_ClockConfig+0xfe>
 8002d2a:	6822      	ldr	r2, [r4, #0]
 8002d2c:	0751      	lsls	r1, r2, #29
 8002d2e:	d46b      	bmi.n	8002e08 <HAL_RCC_ClockConfig+0x110>
 8002d30:	0713      	lsls	r3, r2, #28
 8002d32:	d507      	bpl.n	8002d44 <HAL_RCC_ClockConfig+0x4c>
 8002d34:	4a39      	ldr	r2, [pc, #228]	; (8002e1c <HAL_RCC_ClockConfig+0x124>)
 8002d36:	6921      	ldr	r1, [r4, #16]
 8002d38:	6893      	ldr	r3, [r2, #8]
 8002d3a:	f423 4360 	bic.w	r3, r3, #57344	; 0xe000
 8002d3e:	ea43 03c1 	orr.w	r3, r3, r1, lsl #3
 8002d42:	6093      	str	r3, [r2, #8]
 8002d44:	f7ff ffaa 	bl	8002c9c <HAL_RCC_GetSysClockFreq>
 8002d48:	4b34      	ldr	r3, [pc, #208]	; (8002e1c <HAL_RCC_ClockConfig+0x124>)
 8002d4a:	4a35      	ldr	r2, [pc, #212]	; (8002e20 <HAL_RCC_ClockConfig+0x128>)
 8002d4c:	689b      	ldr	r3, [r3, #8]
 8002d4e:	f3c3 1303 	ubfx	r3, r3, #4, #4
 8002d52:	5cd3      	ldrb	r3, [r2, r3]
 8002d54:	40d8      	lsrs	r0, r3
 8002d56:	4b33      	ldr	r3, [pc, #204]	; (8002e24 <HAL_RCC_ClockConfig+0x12c>)
 8002d58:	6018      	str	r0, [r3, #0]
 8002d5a:	4b33      	ldr	r3, [pc, #204]	; (8002e28 <HAL_RCC_ClockConfig+0x130>)
 8002d5c:	6818      	ldr	r0, [r3, #0]
 8002d5e:	f7ff fc63 	bl	8002628 <HAL_InitTick>
 8002d62:	2000      	movs	r0, #0
 8002d64:	e7ce      	b.n	8002d04 <HAL_RCC_ClockConfig+0xc>
 8002d66:	b2ca      	uxtb	r2, r1
 8002d68:	701a      	strb	r2, [r3, #0]
 8002d6a:	681b      	ldr	r3, [r3, #0]
 8002d6c:	f003 030f 	and.w	r3, r3, #15
 8002d70:	428b      	cmp	r3, r1
 8002d72:	d1c6      	bne.n	8002d02 <HAL_RCC_ClockConfig+0xa>
 8002d74:	e7ce      	b.n	8002d14 <HAL_RCC_ClockConfig+0x1c>
 8002d76:	4b29      	ldr	r3, [pc, #164]	; (8002e1c <HAL_RCC_ClockConfig+0x124>)
 8002d78:	f011 0f04 	tst.w	r1, #4
 8002d7c:	bf1e      	ittt	ne
 8002d7e:	689a      	ldrne	r2, [r3, #8]
 8002d80:	f442 52e0 	orrne.w	r2, r2, #7168	; 0x1c00
 8002d84:	609a      	strne	r2, [r3, #8]
 8002d86:	070e      	lsls	r6, r1, #28
 8002d88:	bf42      	ittt	mi
 8002d8a:	689a      	ldrmi	r2, [r3, #8]
 8002d8c:	f442 4260 	orrmi.w	r2, r2, #57344	; 0xe000
 8002d90:	609a      	strmi	r2, [r3, #8]
 8002d92:	689a      	ldr	r2, [r3, #8]
 8002d94:	68a0      	ldr	r0, [r4, #8]
 8002d96:	f022 02f0 	bic.w	r2, r2, #240	; 0xf0
 8002d9a:	4302      	orrs	r2, r0
 8002d9c:	609a      	str	r2, [r3, #8]
 8002d9e:	e7bc      	b.n	8002d1a <HAL_RCC_ClockConfig+0x22>
 8002da0:	6862      	ldr	r2, [r4, #4]
 8002da2:	4b1e      	ldr	r3, [pc, #120]	; (8002e1c <HAL_RCC_ClockConfig+0x124>)
 8002da4:	2a01      	cmp	r2, #1
 8002da6:	d11c      	bne.n	8002de2 <HAL_RCC_ClockConfig+0xea>
 8002da8:	681b      	ldr	r3, [r3, #0]
 8002daa:	f413 3f00 	tst.w	r3, #131072	; 0x20000
 8002dae:	d0a8      	beq.n	8002d02 <HAL_RCC_ClockConfig+0xa>
 8002db0:	4e1a      	ldr	r6, [pc, #104]	; (8002e1c <HAL_RCC_ClockConfig+0x124>)
 8002db2:	68b3      	ldr	r3, [r6, #8]
 8002db4:	f023 0303 	bic.w	r3, r3, #3
 8002db8:	4313      	orrs	r3, r2
 8002dba:	60b3      	str	r3, [r6, #8]
 8002dbc:	f7ff fc7e 	bl	80026bc <HAL_GetTick>
 8002dc0:	f241 3888 	movw	r8, #5000	; 0x1388
 8002dc4:	4607      	mov	r7, r0
 8002dc6:	68b3      	ldr	r3, [r6, #8]
 8002dc8:	6862      	ldr	r2, [r4, #4]
 8002dca:	f003 030c 	and.w	r3, r3, #12
 8002dce:	ebb3 0f82 	cmp.w	r3, r2, lsl #2
 8002dd2:	d0a4      	beq.n	8002d1e <HAL_RCC_ClockConfig+0x26>
 8002dd4:	f7ff fc72 	bl	80026bc <HAL_GetTick>
 8002dd8:	1bc0      	subs	r0, r0, r7
 8002dda:	4540      	cmp	r0, r8
 8002ddc:	d9f3      	bls.n	8002dc6 <HAL_RCC_ClockConfig+0xce>
 8002dde:	2003      	movs	r0, #3
 8002de0:	e790      	b.n	8002d04 <HAL_RCC_ClockConfig+0xc>
 8002de2:	1e91      	subs	r1, r2, #2
 8002de4:	2901      	cmp	r1, #1
 8002de6:	681b      	ldr	r3, [r3, #0]
 8002de8:	d802      	bhi.n	8002df0 <HAL_RCC_ClockConfig+0xf8>
 8002dea:	f013 7f00 	tst.w	r3, #33554432	; 0x2000000
 8002dee:	e7de      	b.n	8002dae <HAL_RCC_ClockConfig+0xb6>
 8002df0:	f013 0f02 	tst.w	r3, #2
 8002df4:	e7db      	b.n	8002dae <HAL_RCC_ClockConfig+0xb6>
 8002df6:	b2ea      	uxtb	r2, r5
 8002df8:	701a      	strb	r2, [r3, #0]
 8002dfa:	681b      	ldr	r3, [r3, #0]
 8002dfc:	f003 030f 	and.w	r3, r3, #15
 8002e00:	42ab      	cmp	r3, r5
 8002e02:	f47f af7e 	bne.w	8002d02 <HAL_RCC_ClockConfig+0xa>
 8002e06:	e790      	b.n	8002d2a <HAL_RCC_ClockConfig+0x32>
 8002e08:	4904      	ldr	r1, [pc, #16]	; (8002e1c <HAL_RCC_ClockConfig+0x124>)
 8002e0a:	68e0      	ldr	r0, [r4, #12]
 8002e0c:	688b      	ldr	r3, [r1, #8]
 8002e0e:	f423 53e0 	bic.w	r3, r3, #7168	; 0x1c00
 8002e12:	4303      	orrs	r3, r0
 8002e14:	608b      	str	r3, [r1, #8]
 8002e16:	e78b      	b.n	8002d30 <HAL_RCC_ClockConfig+0x38>
 8002e18:	40023c00 	.word	0x40023c00
 8002e1c:	40023800 	.word	0x40023800
 8002e20:	0800669c 	.word	0x0800669c
 8002e24:	20000008 	.word	0x20000008
 8002e28:	20000010 	.word	0x20000010

08002e2c <SPI_WaitFlagStateUntilTimeout.constprop.7>:
 8002e2c:	b5f8      	push	{r3, r4, r5, r6, r7, lr}
 8002e2e:	4604      	mov	r4, r0
 8002e30:	460e      	mov	r6, r1
 8002e32:	4615      	mov	r5, r2
 8002e34:	461f      	mov	r7, r3
 8002e36:	6821      	ldr	r1, [r4, #0]
 8002e38:	688a      	ldr	r2, [r1, #8]
 8002e3a:	ea36 0302 	bics.w	r3, r6, r2
 8002e3e:	d001      	beq.n	8002e44 <SPI_WaitFlagStateUntilTimeout.constprop.7+0x18>
 8002e40:	2000      	movs	r0, #0
 8002e42:	e02d      	b.n	8002ea0 <SPI_WaitFlagStateUntilTimeout.constprop.7+0x74>
 8002e44:	1c6b      	adds	r3, r5, #1
 8002e46:	d0f7      	beq.n	8002e38 <SPI_WaitFlagStateUntilTimeout.constprop.7+0xc>
 8002e48:	f7ff fc38 	bl	80026bc <HAL_GetTick>
 8002e4c:	1bc0      	subs	r0, r0, r7
 8002e4e:	4285      	cmp	r5, r0
 8002e50:	d8f1      	bhi.n	8002e36 <SPI_WaitFlagStateUntilTimeout.constprop.7+0xa>
 8002e52:	6823      	ldr	r3, [r4, #0]
 8002e54:	685a      	ldr	r2, [r3, #4]
 8002e56:	f022 02e0 	bic.w	r2, r2, #224	; 0xe0
 8002e5a:	605a      	str	r2, [r3, #4]
 8002e5c:	6862      	ldr	r2, [r4, #4]
 8002e5e:	f5b2 7f82 	cmp.w	r2, #260	; 0x104
 8002e62:	d10a      	bne.n	8002e7a <SPI_WaitFlagStateUntilTimeout.constprop.7+0x4e>
 8002e64:	68a2      	ldr	r2, [r4, #8]
 8002e66:	f5b2 4f00 	cmp.w	r2, #32768	; 0x8000
 8002e6a:	d002      	beq.n	8002e72 <SPI_WaitFlagStateUntilTimeout.constprop.7+0x46>
 8002e6c:	f5b2 6f80 	cmp.w	r2, #1024	; 0x400
 8002e70:	d103      	bne.n	8002e7a <SPI_WaitFlagStateUntilTimeout.constprop.7+0x4e>
 8002e72:	681a      	ldr	r2, [r3, #0]
 8002e74:	f022 0240 	bic.w	r2, r2, #64	; 0x40
 8002e78:	601a      	str	r2, [r3, #0]
 8002e7a:	6aa2      	ldr	r2, [r4, #40]	; 0x28
 8002e7c:	f5b2 5f00 	cmp.w	r2, #8192	; 0x2000
 8002e80:	d107      	bne.n	8002e92 <SPI_WaitFlagStateUntilTimeout.constprop.7+0x66>
 8002e82:	681a      	ldr	r2, [r3, #0]
 8002e84:	f422 5200 	bic.w	r2, r2, #8192	; 0x2000
 8002e88:	601a      	str	r2, [r3, #0]
 8002e8a:	681a      	ldr	r2, [r3, #0]
 8002e8c:	f442 5200 	orr.w	r2, r2, #8192	; 0x2000
 8002e90:	601a      	str	r2, [r3, #0]
 8002e92:	2301      	movs	r3, #1
 8002e94:	f884 3051 	strb.w	r3, [r4, #81]	; 0x51
 8002e98:	2300      	movs	r3, #0
 8002e9a:	f884 3050 	strb.w	r3, [r4, #80]	; 0x50
 8002e9e:	2003      	movs	r0, #3
 8002ea0:	bdf8      	pop	{r3, r4, r5, r6, r7, pc}
	...

08002ea4 <SPI_EndRxTxTransaction>:
 8002ea4:	b573      	push	{r0, r1, r4, r5, r6, lr}
 8002ea6:	4613      	mov	r3, r2
 8002ea8:	4a12      	ldr	r2, [pc, #72]	; (8002ef4 <SPI_EndRxTxTransaction+0x50>)
 8002eaa:	4e13      	ldr	r6, [pc, #76]	; (8002ef8 <SPI_EndRxTxTransaction+0x54>)
 8002eac:	6815      	ldr	r5, [r2, #0]
 8002eae:	6842      	ldr	r2, [r0, #4]
 8002eb0:	fbb5 f6f6 	udiv	r6, r5, r6
 8002eb4:	f44f 757a 	mov.w	r5, #1000	; 0x3e8
 8002eb8:	4375      	muls	r5, r6
 8002eba:	f5b2 7f82 	cmp.w	r2, #260	; 0x104
 8002ebe:	4604      	mov	r4, r0
 8002ec0:	9501      	str	r5, [sp, #4]
 8002ec2:	d10b      	bne.n	8002edc <SPI_EndRxTxTransaction+0x38>
 8002ec4:	460a      	mov	r2, r1
 8002ec6:	2180      	movs	r1, #128	; 0x80
 8002ec8:	f7ff ffb0 	bl	8002e2c <SPI_WaitFlagStateUntilTimeout.constprop.7>
 8002ecc:	b178      	cbz	r0, 8002eee <SPI_EndRxTxTransaction+0x4a>
 8002ece:	6d63      	ldr	r3, [r4, #84]	; 0x54
 8002ed0:	f043 0320 	orr.w	r3, r3, #32
 8002ed4:	6563      	str	r3, [r4, #84]	; 0x54
 8002ed6:	2003      	movs	r0, #3
 8002ed8:	b002      	add	sp, #8
 8002eda:	bd70      	pop	{r4, r5, r6, pc}
 8002edc:	9b01      	ldr	r3, [sp, #4]
 8002ede:	b133      	cbz	r3, 8002eee <SPI_EndRxTxTransaction+0x4a>
 8002ee0:	9b01      	ldr	r3, [sp, #4]
 8002ee2:	3b01      	subs	r3, #1
 8002ee4:	9301      	str	r3, [sp, #4]
 8002ee6:	6823      	ldr	r3, [r4, #0]
 8002ee8:	689b      	ldr	r3, [r3, #8]
 8002eea:	061b      	lsls	r3, r3, #24
 8002eec:	d4f6      	bmi.n	8002edc <SPI_EndRxTxTransaction+0x38>
 8002eee:	2000      	movs	r0, #0
 8002ef0:	e7f2      	b.n	8002ed8 <SPI_EndRxTxTransaction+0x34>
 8002ef2:	bf00      	nop
 8002ef4:	20000008 	.word	0x20000008
 8002ef8:	016e3600 	.word	0x016e3600

08002efc <HAL_SPI_Init>:
 8002efc:	b510      	push	{r4, lr}
 8002efe:	4604      	mov	r4, r0
 8002f00:	2800      	cmp	r0, #0
 8002f02:	d036      	beq.n	8002f72 <HAL_SPI_Init+0x76>
 8002f04:	2300      	movs	r3, #0
 8002f06:	6283      	str	r3, [r0, #40]	; 0x28
 8002f08:	f890 3051 	ldrb.w	r3, [r0, #81]	; 0x51
 8002f0c:	f003 02ff 	and.w	r2, r3, #255	; 0xff
 8002f10:	b91b      	cbnz	r3, 8002f1a <HAL_SPI_Init+0x1e>
 8002f12:	f880 2050 	strb.w	r2, [r0, #80]	; 0x50
 8002f16:	f7ff fab5 	bl	8002484 <HAL_SPI_MspInit>
 8002f1a:	6821      	ldr	r1, [r4, #0]
 8002f1c:	69a2      	ldr	r2, [r4, #24]
 8002f1e:	2302      	movs	r3, #2
 8002f20:	f884 3051 	strb.w	r3, [r4, #81]	; 0x51
 8002f24:	680b      	ldr	r3, [r1, #0]
 8002f26:	f023 0340 	bic.w	r3, r3, #64	; 0x40
 8002f2a:	600b      	str	r3, [r1, #0]
 8002f2c:	e9d4 3001 	ldrd	r3, r0, [r4, #4]
 8002f30:	4303      	orrs	r3, r0
 8002f32:	68e0      	ldr	r0, [r4, #12]
 8002f34:	4303      	orrs	r3, r0
 8002f36:	6920      	ldr	r0, [r4, #16]
 8002f38:	4303      	orrs	r3, r0
 8002f3a:	6960      	ldr	r0, [r4, #20]
 8002f3c:	4303      	orrs	r3, r0
 8002f3e:	69e0      	ldr	r0, [r4, #28]
 8002f40:	4303      	orrs	r3, r0
 8002f42:	6a20      	ldr	r0, [r4, #32]
 8002f44:	4303      	orrs	r3, r0
 8002f46:	6aa0      	ldr	r0, [r4, #40]	; 0x28
 8002f48:	4303      	orrs	r3, r0
 8002f4a:	f402 7000 	and.w	r0, r2, #512	; 0x200
 8002f4e:	4303      	orrs	r3, r0
 8002f50:	600b      	str	r3, [r1, #0]
 8002f52:	0c12      	lsrs	r2, r2, #16
 8002f54:	6a63      	ldr	r3, [r4, #36]	; 0x24
 8002f56:	f002 0204 	and.w	r2, r2, #4
 8002f5a:	431a      	orrs	r2, r3
 8002f5c:	604a      	str	r2, [r1, #4]
 8002f5e:	69cb      	ldr	r3, [r1, #28]
 8002f60:	f423 6300 	bic.w	r3, r3, #2048	; 0x800
 8002f64:	61cb      	str	r3, [r1, #28]
 8002f66:	2000      	movs	r0, #0
 8002f68:	2301      	movs	r3, #1
 8002f6a:	6560      	str	r0, [r4, #84]	; 0x54
 8002f6c:	f884 3051 	strb.w	r3, [r4, #81]	; 0x51
 8002f70:	bd10      	pop	{r4, pc}
 8002f72:	2001      	movs	r0, #1
 8002f74:	e7fc      	b.n	8002f70 <HAL_SPI_Init+0x74>

08002f76 <HAL_SPI_Transmit>:
 8002f76:	e92d 41f3 	stmdb	sp!, {r0, r1, r4, r5, r6, r7, r8, lr}
 8002f7a:	461e      	mov	r6, r3
 8002f7c:	f890 3050 	ldrb.w	r3, [r0, #80]	; 0x50
 8002f80:	2b01      	cmp	r3, #1
 8002f82:	4604      	mov	r4, r0
 8002f84:	460d      	mov	r5, r1
 8002f86:	4690      	mov	r8, r2
 8002f88:	f000 809b 	beq.w	80030c2 <HAL_SPI_Transmit+0x14c>
 8002f8c:	2301      	movs	r3, #1
 8002f8e:	f880 3050 	strb.w	r3, [r0, #80]	; 0x50
 8002f92:	f7ff fb93 	bl	80026bc <HAL_GetTick>
 8002f96:	4607      	mov	r7, r0
 8002f98:	f894 0051 	ldrb.w	r0, [r4, #81]	; 0x51
 8002f9c:	b2c0      	uxtb	r0, r0
 8002f9e:	2801      	cmp	r0, #1
 8002fa0:	f040 808d 	bne.w	80030be <HAL_SPI_Transmit+0x148>
 8002fa4:	2d00      	cmp	r5, #0
 8002fa6:	d05d      	beq.n	8003064 <HAL_SPI_Transmit+0xee>
 8002fa8:	f1b8 0f00 	cmp.w	r8, #0
 8002fac:	d05a      	beq.n	8003064 <HAL_SPI_Transmit+0xee>
 8002fae:	2303      	movs	r3, #3
 8002fb0:	f884 3051 	strb.w	r3, [r4, #81]	; 0x51
 8002fb4:	2000      	movs	r0, #0
 8002fb6:	68a3      	ldr	r3, [r4, #8]
 8002fb8:	6560      	str	r0, [r4, #84]	; 0x54
 8002fba:	63a0      	str	r0, [r4, #56]	; 0x38
 8002fbc:	f8a4 8036 	strh.w	r8, [r4, #54]	; 0x36
 8002fc0:	87a0      	strh	r0, [r4, #60]	; 0x3c
 8002fc2:	87e0      	strh	r0, [r4, #62]	; 0x3e
 8002fc4:	e9c4 0010 	strd	r0, r0, [r4, #64]	; 0x40
 8002fc8:	6820      	ldr	r0, [r4, #0]
 8002fca:	6325      	str	r5, [r4, #48]	; 0x30
 8002fcc:	f5b3 4f00 	cmp.w	r3, #32768	; 0x8000
 8002fd0:	bf08      	it	eq
 8002fd2:	6803      	ldreq	r3, [r0, #0]
 8002fd4:	f8a4 8034 	strh.w	r8, [r4, #52]	; 0x34
 8002fd8:	bf04      	itt	eq
 8002fda:	f443 4380 	orreq.w	r3, r3, #16384	; 0x4000
 8002fde:	6003      	streq	r3, [r0, #0]
 8002fe0:	6803      	ldr	r3, [r0, #0]
 8002fe2:	68e2      	ldr	r2, [r4, #12]
 8002fe4:	065b      	lsls	r3, r3, #25
 8002fe6:	bf5e      	ittt	pl
 8002fe8:	6803      	ldrpl	r3, [r0, #0]
 8002fea:	f043 0340 	orrpl.w	r3, r3, #64	; 0x40
 8002fee:	6003      	strpl	r3, [r0, #0]
 8002ff0:	f5b2 6f00 	cmp.w	r2, #2048	; 0x800
 8002ff4:	6863      	ldr	r3, [r4, #4]
 8002ff6:	d13e      	bne.n	8003076 <HAL_SPI_Transmit+0x100>
 8002ff8:	b113      	cbz	r3, 8003000 <HAL_SPI_Transmit+0x8a>
 8002ffa:	f1b8 0f01 	cmp.w	r8, #1
 8002ffe:	d107      	bne.n	8003010 <HAL_SPI_Transmit+0x9a>
 8003000:	f835 3b02 	ldrh.w	r3, [r5], #2
 8003004:	60c3      	str	r3, [r0, #12]
 8003006:	6325      	str	r5, [r4, #48]	; 0x30
 8003008:	8ee3      	ldrh	r3, [r4, #54]	; 0x36
 800300a:	3b01      	subs	r3, #1
 800300c:	b29b      	uxth	r3, r3
 800300e:	86e3      	strh	r3, [r4, #54]	; 0x36
 8003010:	8ee3      	ldrh	r3, [r4, #54]	; 0x36
 8003012:	b29b      	uxth	r3, r3
 8003014:	b9a3      	cbnz	r3, 8003040 <HAL_SPI_Transmit+0xca>
 8003016:	463a      	mov	r2, r7
 8003018:	4631      	mov	r1, r6
 800301a:	4620      	mov	r0, r4
 800301c:	f7ff ff42 	bl	8002ea4 <SPI_EndRxTxTransaction>
 8003020:	2800      	cmp	r0, #0
 8003022:	d149      	bne.n	80030b8 <HAL_SPI_Transmit+0x142>
 8003024:	68a3      	ldr	r3, [r4, #8]
 8003026:	b933      	cbnz	r3, 8003036 <HAL_SPI_Transmit+0xc0>
 8003028:	9301      	str	r3, [sp, #4]
 800302a:	6823      	ldr	r3, [r4, #0]
 800302c:	68da      	ldr	r2, [r3, #12]
 800302e:	9201      	str	r2, [sp, #4]
 8003030:	689b      	ldr	r3, [r3, #8]
 8003032:	9301      	str	r3, [sp, #4]
 8003034:	9b01      	ldr	r3, [sp, #4]
 8003036:	6d60      	ldr	r0, [r4, #84]	; 0x54
 8003038:	3000      	adds	r0, #0
 800303a:	bf18      	it	ne
 800303c:	2001      	movne	r0, #1
 800303e:	e011      	b.n	8003064 <HAL_SPI_Transmit+0xee>
 8003040:	6822      	ldr	r2, [r4, #0]
 8003042:	6893      	ldr	r3, [r2, #8]
 8003044:	0798      	lsls	r0, r3, #30
 8003046:	d505      	bpl.n	8003054 <HAL_SPI_Transmit+0xde>
 8003048:	6b23      	ldr	r3, [r4, #48]	; 0x30
 800304a:	f833 1b02 	ldrh.w	r1, [r3], #2
 800304e:	60d1      	str	r1, [r2, #12]
 8003050:	6323      	str	r3, [r4, #48]	; 0x30
 8003052:	e7d9      	b.n	8003008 <HAL_SPI_Transmit+0x92>
 8003054:	f7ff fb32 	bl	80026bc <HAL_GetTick>
 8003058:	1bc0      	subs	r0, r0, r7
 800305a:	42b0      	cmp	r0, r6
 800305c:	d3d8      	bcc.n	8003010 <HAL_SPI_Transmit+0x9a>
 800305e:	1c71      	adds	r1, r6, #1
 8003060:	d0d6      	beq.n	8003010 <HAL_SPI_Transmit+0x9a>
 8003062:	2003      	movs	r0, #3
 8003064:	2301      	movs	r3, #1
 8003066:	f884 3051 	strb.w	r3, [r4, #81]	; 0x51
 800306a:	2300      	movs	r3, #0
 800306c:	f884 3050 	strb.w	r3, [r4, #80]	; 0x50
 8003070:	b002      	add	sp, #8
 8003072:	e8bd 81f0 	ldmia.w	sp!, {r4, r5, r6, r7, r8, pc}
 8003076:	b113      	cbz	r3, 800307e <HAL_SPI_Transmit+0x108>
 8003078:	f1b8 0f01 	cmp.w	r8, #1
 800307c:	d108      	bne.n	8003090 <HAL_SPI_Transmit+0x11a>
 800307e:	782b      	ldrb	r3, [r5, #0]
 8003080:	7303      	strb	r3, [r0, #12]
 8003082:	6b23      	ldr	r3, [r4, #48]	; 0x30
 8003084:	3301      	adds	r3, #1
 8003086:	6323      	str	r3, [r4, #48]	; 0x30
 8003088:	8ee3      	ldrh	r3, [r4, #54]	; 0x36
 800308a:	3b01      	subs	r3, #1
 800308c:	b29b      	uxth	r3, r3
 800308e:	86e3      	strh	r3, [r4, #54]	; 0x36
 8003090:	8ee3      	ldrh	r3, [r4, #54]	; 0x36
 8003092:	b29b      	uxth	r3, r3
 8003094:	2b00      	cmp	r3, #0
 8003096:	d0be      	beq.n	8003016 <HAL_SPI_Transmit+0xa0>
 8003098:	6823      	ldr	r3, [r4, #0]
 800309a:	689a      	ldr	r2, [r3, #8]
 800309c:	0792      	lsls	r2, r2, #30
 800309e:	d503      	bpl.n	80030a8 <HAL_SPI_Transmit+0x132>
 80030a0:	6b22      	ldr	r2, [r4, #48]	; 0x30
 80030a2:	7812      	ldrb	r2, [r2, #0]
 80030a4:	731a      	strb	r2, [r3, #12]
 80030a6:	e7ec      	b.n	8003082 <HAL_SPI_Transmit+0x10c>
 80030a8:	f7ff fb08 	bl	80026bc <HAL_GetTick>
 80030ac:	1bc0      	subs	r0, r0, r7
 80030ae:	42b0      	cmp	r0, r6
 80030b0:	d3ee      	bcc.n	8003090 <HAL_SPI_Transmit+0x11a>
 80030b2:	1c73      	adds	r3, r6, #1
 80030b4:	d0ec      	beq.n	8003090 <HAL_SPI_Transmit+0x11a>
 80030b6:	e7d4      	b.n	8003062 <HAL_SPI_Transmit+0xec>
 80030b8:	2320      	movs	r3, #32
 80030ba:	6563      	str	r3, [r4, #84]	; 0x54
 80030bc:	e7b2      	b.n	8003024 <HAL_SPI_Transmit+0xae>
 80030be:	2002      	movs	r0, #2
 80030c0:	e7d0      	b.n	8003064 <HAL_SPI_Transmit+0xee>
 80030c2:	2002      	movs	r0, #2
 80030c4:	e7d4      	b.n	8003070 <HAL_SPI_Transmit+0xfa>

080030c6 <HAL_SPI_TransmitReceive>:
 80030c6:	e92d 43f7 	stmdb	sp!, {r0, r1, r2, r4, r5, r6, r7, r8, r9, lr}
 80030ca:	461e      	mov	r6, r3
 80030cc:	f890 3050 	ldrb.w	r3, [r0, #80]	; 0x50
 80030d0:	9f0a      	ldr	r7, [sp, #40]	; 0x28
 80030d2:	2b01      	cmp	r3, #1
 80030d4:	4604      	mov	r4, r0
 80030d6:	460d      	mov	r5, r1
 80030d8:	4691      	mov	r9, r2
 80030da:	f000 80e2 	beq.w	80032a2 <HAL_SPI_TransmitReceive+0x1dc>
 80030de:	2301      	movs	r3, #1
 80030e0:	f880 3050 	strb.w	r3, [r0, #80]	; 0x50
 80030e4:	f7ff faea 	bl	80026bc <HAL_GetTick>
 80030e8:	f894 3051 	ldrb.w	r3, [r4, #81]	; 0x51
 80030ec:	6861      	ldr	r1, [r4, #4]
 80030ee:	b2db      	uxtb	r3, r3
 80030f0:	2b01      	cmp	r3, #1
 80030f2:	4680      	mov	r8, r0
 80030f4:	d00a      	beq.n	800310c <HAL_SPI_TransmitReceive+0x46>
 80030f6:	f5b1 7f82 	cmp.w	r1, #260	; 0x104
 80030fa:	f040 80d0 	bne.w	800329e <HAL_SPI_TransmitReceive+0x1d8>
 80030fe:	68a0      	ldr	r0, [r4, #8]
 8003100:	2800      	cmp	r0, #0
 8003102:	f040 80cc 	bne.w	800329e <HAL_SPI_TransmitReceive+0x1d8>
 8003106:	2b04      	cmp	r3, #4
 8003108:	f040 80c9 	bne.w	800329e <HAL_SPI_TransmitReceive+0x1d8>
 800310c:	2d00      	cmp	r5, #0
 800310e:	f000 80c4 	beq.w	800329a <HAL_SPI_TransmitReceive+0x1d4>
 8003112:	f1b9 0f00 	cmp.w	r9, #0
 8003116:	f000 80c0 	beq.w	800329a <HAL_SPI_TransmitReceive+0x1d4>
 800311a:	2e00      	cmp	r6, #0
 800311c:	f000 80bd 	beq.w	800329a <HAL_SPI_TransmitReceive+0x1d4>
 8003120:	f894 3051 	ldrb.w	r3, [r4, #81]	; 0x51
 8003124:	f8c4 9038 	str.w	r9, [r4, #56]	; 0x38
 8003128:	2b04      	cmp	r3, #4
 800312a:	bf1c      	itt	ne
 800312c:	2305      	movne	r3, #5
 800312e:	f884 3051 	strbne.w	r3, [r4, #81]	; 0x51
 8003132:	2300      	movs	r3, #0
 8003134:	6563      	str	r3, [r4, #84]	; 0x54
 8003136:	e9c4 3310 	strd	r3, r3, [r4, #64]	; 0x40
 800313a:	6823      	ldr	r3, [r4, #0]
 800313c:	87e6      	strh	r6, [r4, #62]	; 0x3e
 800313e:	86e6      	strh	r6, [r4, #54]	; 0x36
 8003140:	681a      	ldr	r2, [r3, #0]
 8003142:	87a6      	strh	r6, [r4, #60]	; 0x3c
 8003144:	0650      	lsls	r0, r2, #25
 8003146:	bf58      	it	pl
 8003148:	681a      	ldrpl	r2, [r3, #0]
 800314a:	6325      	str	r5, [r4, #48]	; 0x30
 800314c:	bf58      	it	pl
 800314e:	f042 0240 	orrpl.w	r2, r2, #64	; 0x40
 8003152:	86a6      	strh	r6, [r4, #52]	; 0x34
 8003154:	bf58      	it	pl
 8003156:	601a      	strpl	r2, [r3, #0]
 8003158:	68e2      	ldr	r2, [r4, #12]
 800315a:	f5b2 6f00 	cmp.w	r2, #2048	; 0x800
 800315e:	d158      	bne.n	8003212 <HAL_SPI_TransmitReceive+0x14c>
 8003160:	b109      	cbz	r1, 8003166 <HAL_SPI_TransmitReceive+0xa0>
 8003162:	2e01      	cmp	r6, #1
 8003164:	d107      	bne.n	8003176 <HAL_SPI_TransmitReceive+0xb0>
 8003166:	f835 2b02 	ldrh.w	r2, [r5], #2
 800316a:	60da      	str	r2, [r3, #12]
 800316c:	8ee3      	ldrh	r3, [r4, #54]	; 0x36
 800316e:	6325      	str	r5, [r4, #48]	; 0x30
 8003170:	3b01      	subs	r3, #1
 8003172:	b29b      	uxth	r3, r3
 8003174:	86e3      	strh	r3, [r4, #54]	; 0x36
 8003176:	2501      	movs	r5, #1
 8003178:	8ee3      	ldrh	r3, [r4, #54]	; 0x36
 800317a:	b29b      	uxth	r3, r3
 800317c:	b9ab      	cbnz	r3, 80031aa <HAL_SPI_TransmitReceive+0xe4>
 800317e:	8fe3      	ldrh	r3, [r4, #62]	; 0x3e
 8003180:	b29b      	uxth	r3, r3
 8003182:	b993      	cbnz	r3, 80031aa <HAL_SPI_TransmitReceive+0xe4>
 8003184:	4642      	mov	r2, r8
 8003186:	4639      	mov	r1, r7
 8003188:	4620      	mov	r0, r4
 800318a:	f7ff fe8b 	bl	8002ea4 <SPI_EndRxTxTransaction>
 800318e:	2800      	cmp	r0, #0
 8003190:	f040 8081 	bne.w	8003296 <HAL_SPI_TransmitReceive+0x1d0>
 8003194:	68a3      	ldr	r3, [r4, #8]
 8003196:	2b00      	cmp	r3, #0
 8003198:	d132      	bne.n	8003200 <HAL_SPI_TransmitReceive+0x13a>
 800319a:	6823      	ldr	r3, [r4, #0]
 800319c:	9001      	str	r0, [sp, #4]
 800319e:	68da      	ldr	r2, [r3, #12]
 80031a0:	9201      	str	r2, [sp, #4]
 80031a2:	689b      	ldr	r3, [r3, #8]
 80031a4:	9301      	str	r3, [sp, #4]
 80031a6:	9b01      	ldr	r3, [sp, #4]
 80031a8:	e02a      	b.n	8003200 <HAL_SPI_TransmitReceive+0x13a>
 80031aa:	6822      	ldr	r2, [r4, #0]
 80031ac:	6893      	ldr	r3, [r2, #8]
 80031ae:	0799      	lsls	r1, r3, #30
 80031b0:	d50d      	bpl.n	80031ce <HAL_SPI_TransmitReceive+0x108>
 80031b2:	8ee3      	ldrh	r3, [r4, #54]	; 0x36
 80031b4:	b29b      	uxth	r3, r3
 80031b6:	b153      	cbz	r3, 80031ce <HAL_SPI_TransmitReceive+0x108>
 80031b8:	b14d      	cbz	r5, 80031ce <HAL_SPI_TransmitReceive+0x108>
 80031ba:	6b23      	ldr	r3, [r4, #48]	; 0x30
 80031bc:	f833 1b02 	ldrh.w	r1, [r3], #2
 80031c0:	60d1      	str	r1, [r2, #12]
 80031c2:	6323      	str	r3, [r4, #48]	; 0x30
 80031c4:	8ee3      	ldrh	r3, [r4, #54]	; 0x36
 80031c6:	3b01      	subs	r3, #1
 80031c8:	b29b      	uxth	r3, r3
 80031ca:	86e3      	strh	r3, [r4, #54]	; 0x36
 80031cc:	2500      	movs	r5, #0
 80031ce:	6893      	ldr	r3, [r2, #8]
 80031d0:	07db      	lsls	r3, r3, #31
 80031d2:	d50c      	bpl.n	80031ee <HAL_SPI_TransmitReceive+0x128>
 80031d4:	8fe3      	ldrh	r3, [r4, #62]	; 0x3e
 80031d6:	b29b      	uxth	r3, r3
 80031d8:	b14b      	cbz	r3, 80031ee <HAL_SPI_TransmitReceive+0x128>
 80031da:	6ba3      	ldr	r3, [r4, #56]	; 0x38
 80031dc:	68d2      	ldr	r2, [r2, #12]
 80031de:	f823 2b02 	strh.w	r2, [r3], #2
 80031e2:	63a3      	str	r3, [r4, #56]	; 0x38
 80031e4:	8fe3      	ldrh	r3, [r4, #62]	; 0x3e
 80031e6:	3b01      	subs	r3, #1
 80031e8:	b29b      	uxth	r3, r3
 80031ea:	87e3      	strh	r3, [r4, #62]	; 0x3e
 80031ec:	2501      	movs	r5, #1
 80031ee:	f7ff fa65 	bl	80026bc <HAL_GetTick>
 80031f2:	eba0 0008 	sub.w	r0, r0, r8
 80031f6:	4287      	cmp	r7, r0
 80031f8:	d8be      	bhi.n	8003178 <HAL_SPI_TransmitReceive+0xb2>
 80031fa:	1c7e      	adds	r6, r7, #1
 80031fc:	d0bc      	beq.n	8003178 <HAL_SPI_TransmitReceive+0xb2>
 80031fe:	2003      	movs	r0, #3
 8003200:	2301      	movs	r3, #1
 8003202:	f884 3051 	strb.w	r3, [r4, #81]	; 0x51
 8003206:	2300      	movs	r3, #0
 8003208:	f884 3050 	strb.w	r3, [r4, #80]	; 0x50
 800320c:	b003      	add	sp, #12
 800320e:	e8bd 83f0 	ldmia.w	sp!, {r4, r5, r6, r7, r8, r9, pc}
 8003212:	b109      	cbz	r1, 8003218 <HAL_SPI_TransmitReceive+0x152>
 8003214:	2e01      	cmp	r6, #1
 8003216:	d108      	bne.n	800322a <HAL_SPI_TransmitReceive+0x164>
 8003218:	782a      	ldrb	r2, [r5, #0]
 800321a:	731a      	strb	r2, [r3, #12]
 800321c:	6b23      	ldr	r3, [r4, #48]	; 0x30
 800321e:	3301      	adds	r3, #1
 8003220:	6323      	str	r3, [r4, #48]	; 0x30
 8003222:	8ee3      	ldrh	r3, [r4, #54]	; 0x36
 8003224:	3b01      	subs	r3, #1
 8003226:	b29b      	uxth	r3, r3
 8003228:	86e3      	strh	r3, [r4, #54]	; 0x36
 800322a:	2501      	movs	r5, #1
 800322c:	8ee3      	ldrh	r3, [r4, #54]	; 0x36
 800322e:	b29b      	uxth	r3, r3
 8003230:	b91b      	cbnz	r3, 800323a <HAL_SPI_TransmitReceive+0x174>
 8003232:	8fe3      	ldrh	r3, [r4, #62]	; 0x3e
 8003234:	b29b      	uxth	r3, r3
 8003236:	2b00      	cmp	r3, #0
 8003238:	d0a4      	beq.n	8003184 <HAL_SPI_TransmitReceive+0xbe>
 800323a:	6822      	ldr	r2, [r4, #0]
 800323c:	6893      	ldr	r3, [r2, #8]
 800323e:	0798      	lsls	r0, r3, #30
 8003240:	d50e      	bpl.n	8003260 <HAL_SPI_TransmitReceive+0x19a>
 8003242:	8ee3      	ldrh	r3, [r4, #54]	; 0x36
 8003244:	b29b      	uxth	r3, r3
 8003246:	b15b      	cbz	r3, 8003260 <HAL_SPI_TransmitReceive+0x19a>
 8003248:	b155      	cbz	r5, 8003260 <HAL_SPI_TransmitReceive+0x19a>
 800324a:	6b23      	ldr	r3, [r4, #48]	; 0x30
 800324c:	781b      	ldrb	r3, [r3, #0]
 800324e:	7313      	strb	r3, [r2, #12]
 8003250:	6b23      	ldr	r3, [r4, #48]	; 0x30
 8003252:	3301      	adds	r3, #1
 8003254:	6323      	str	r3, [r4, #48]	; 0x30
 8003256:	8ee3      	ldrh	r3, [r4, #54]	; 0x36
 8003258:	3b01      	subs	r3, #1
 800325a:	b29b      	uxth	r3, r3
 800325c:	86e3      	strh	r3, [r4, #54]	; 0x36
 800325e:	2500      	movs	r5, #0
 8003260:	6822      	ldr	r2, [r4, #0]
 8003262:	6893      	ldr	r3, [r2, #8]
 8003264:	07d9      	lsls	r1, r3, #31
 8003266:	d50d      	bpl.n	8003284 <HAL_SPI_TransmitReceive+0x1be>
 8003268:	8fe3      	ldrh	r3, [r4, #62]	; 0x3e
 800326a:	b29b      	uxth	r3, r3
 800326c:	b153      	cbz	r3, 8003284 <HAL_SPI_TransmitReceive+0x1be>
 800326e:	6ba3      	ldr	r3, [r4, #56]	; 0x38
 8003270:	68d2      	ldr	r2, [r2, #12]
 8003272:	701a      	strb	r2, [r3, #0]
 8003274:	6ba3      	ldr	r3, [r4, #56]	; 0x38
 8003276:	3301      	adds	r3, #1
 8003278:	63a3      	str	r3, [r4, #56]	; 0x38
 800327a:	8fe3      	ldrh	r3, [r4, #62]	; 0x3e
 800327c:	3b01      	subs	r3, #1
 800327e:	b29b      	uxth	r3, r3
 8003280:	87e3      	strh	r3, [r4, #62]	; 0x3e
 8003282:	2501      	movs	r5, #1
 8003284:	f7ff fa1a 	bl	80026bc <HAL_GetTick>
 8003288:	eba0 0008 	sub.w	r0, r0, r8
 800328c:	4287      	cmp	r7, r0
 800328e:	d8cd      	bhi.n	800322c <HAL_SPI_TransmitReceive+0x166>
 8003290:	1c7b      	adds	r3, r7, #1
 8003292:	d0cb      	beq.n	800322c <HAL_SPI_TransmitReceive+0x166>
 8003294:	e7b3      	b.n	80031fe <HAL_SPI_TransmitReceive+0x138>
 8003296:	2320      	movs	r3, #32
 8003298:	6563      	str	r3, [r4, #84]	; 0x54
 800329a:	2001      	movs	r0, #1
 800329c:	e7b0      	b.n	8003200 <HAL_SPI_TransmitReceive+0x13a>
 800329e:	2002      	movs	r0, #2
 80032a0:	e7ae      	b.n	8003200 <HAL_SPI_TransmitReceive+0x13a>
 80032a2:	2002      	movs	r0, #2
 80032a4:	e7b2      	b.n	800320c <HAL_SPI_TransmitReceive+0x146>

080032a6 <HAL_SPI_GetState>:
 80032a6:	f890 0051 	ldrb.w	r0, [r0, #81]	; 0x51
 80032aa:	4770      	bx	lr

080032ac <MX_FATFS_Init>:
 80032ac:	b508      	push	{r3, lr}
 80032ae:	4903      	ldr	r1, [pc, #12]	; (80032bc <MX_FATFS_Init+0x10>)
 80032b0:	4803      	ldr	r0, [pc, #12]	; (80032c0 <MX_FATFS_Init+0x14>)
 80032b2:	f001 fbf7 	bl	8004aa4 <FATFS_LinkDriver>
 80032b6:	4b03      	ldr	r3, [pc, #12]	; (80032c4 <MX_FATFS_Init+0x18>)
 80032b8:	7018      	strb	r0, [r3, #0]
 80032ba:	bd08      	pop	{r3, pc}
 80032bc:	2000c068 	.word	0x2000c068
 80032c0:	20000014 	.word	0x20000014
 80032c4:	2000c06c 	.word	0x2000c06c

080032c8 <get_fattime>:
 80032c8:	2000      	movs	r0, #0
 80032ca:	4770      	bx	lr

080032cc <USER_initialize>:
 80032cc:	b508      	push	{r3, lr}
 80032ce:	f7fd feb1 	bl	8001034 <SD_disk_initialize>
 80032d2:	b2c0      	uxtb	r0, r0
 80032d4:	bd08      	pop	{r3, pc}

080032d6 <USER_status>:
 80032d6:	b508      	push	{r3, lr}
 80032d8:	f7fd ff50 	bl	800117c <SD_disk_status>
 80032dc:	b2c0      	uxtb	r0, r0
 80032de:	bd08      	pop	{r3, pc}

080032e0 <USER_read>:
 80032e0:	b508      	push	{r3, lr}
 80032e2:	f7fd ff55 	bl	8001190 <SD_disk_read>
 80032e6:	b2c0      	uxtb	r0, r0
 80032e8:	bd08      	pop	{r3, pc}

080032ea <USER_write>:
 80032ea:	b508      	push	{r3, lr}
 80032ec:	f7fd ff96 	bl	800121c <SD_disk_write>
 80032f0:	b2c0      	uxtb	r0, r0
 80032f2:	bd08      	pop	{r3, pc}

080032f4 <USER_ioctl>:
 80032f4:	b508      	push	{r3, lr}
 80032f6:	f7fd ffe9 	bl	80012cc <SD_disk_ioctl>
 80032fa:	b2c0      	uxtb	r0, r0
 80032fc:	bd08      	pop	{r3, pc}
	...

08003300 <disk_status>:
 8003300:	4b03      	ldr	r3, [pc, #12]	; (8003310 <disk_status+0x10>)
 8003302:	181a      	adds	r2, r3, r0
 8003304:	eb03 0380 	add.w	r3, r3, r0, lsl #2
 8003308:	7a10      	ldrb	r0, [r2, #8]
 800330a:	685b      	ldr	r3, [r3, #4]
 800330c:	685b      	ldr	r3, [r3, #4]
 800330e:	4718      	bx	r3
 8003310:	200002ec 	.word	0x200002ec

08003314 <disk_initialize>:
 8003314:	4b06      	ldr	r3, [pc, #24]	; (8003330 <disk_initialize+0x1c>)
 8003316:	5c1a      	ldrb	r2, [r3, r0]
 8003318:	b942      	cbnz	r2, 800332c <disk_initialize+0x18>
 800331a:	2201      	movs	r2, #1
 800331c:	541a      	strb	r2, [r3, r0]
 800331e:	181a      	adds	r2, r3, r0
 8003320:	eb03 0380 	add.w	r3, r3, r0, lsl #2
 8003324:	7a10      	ldrb	r0, [r2, #8]
 8003326:	685b      	ldr	r3, [r3, #4]
 8003328:	681b      	ldr	r3, [r3, #0]
 800332a:	4718      	bx	r3
 800332c:	2000      	movs	r0, #0
 800332e:	4770      	bx	lr
 8003330:	200002ec 	.word	0x200002ec

08003334 <disk_read>:
 8003334:	b430      	push	{r4, r5}
 8003336:	4c05      	ldr	r4, [pc, #20]	; (800334c <disk_read+0x18>)
 8003338:	1825      	adds	r5, r4, r0
 800333a:	eb04 0480 	add.w	r4, r4, r0, lsl #2
 800333e:	6860      	ldr	r0, [r4, #4]
 8003340:	6884      	ldr	r4, [r0, #8]
 8003342:	7a28      	ldrb	r0, [r5, #8]
 8003344:	46a4      	mov	ip, r4
 8003346:	bc30      	pop	{r4, r5}
 8003348:	4760      	bx	ip
 800334a:	bf00      	nop
 800334c:	200002ec 	.word	0x200002ec

08003350 <disk_write>:
 8003350:	b430      	push	{r4, r5}
 8003352:	4c05      	ldr	r4, [pc, #20]	; (8003368 <disk_write+0x18>)
 8003354:	1825      	adds	r5, r4, r0
 8003356:	eb04 0480 	add.w	r4, r4, r0, lsl #2
 800335a:	6860      	ldr	r0, [r4, #4]
 800335c:	68c4      	ldr	r4, [r0, #12]
 800335e:	7a28      	ldrb	r0, [r5, #8]
 8003360:	46a4      	mov	ip, r4
 8003362:	bc30      	pop	{r4, r5}
 8003364:	4760      	bx	ip
 8003366:	bf00      	nop
 8003368:	200002ec 	.word	0x200002ec

0800336c <disk_ioctl>:
 800336c:	4b05      	ldr	r3, [pc, #20]	; (8003384 <disk_ioctl+0x18>)
 800336e:	b410      	push	{r4}
 8003370:	181c      	adds	r4, r3, r0
 8003372:	eb03 0380 	add.w	r3, r3, r0, lsl #2
 8003376:	7a20      	ldrb	r0, [r4, #8]
 8003378:	685b      	ldr	r3, [r3, #4]
 800337a:	f85d 4b04 	ldr.w	r4, [sp], #4
 800337e:	691b      	ldr	r3, [r3, #16]
 8003380:	4718      	bx	r3
 8003382:	bf00      	nop
 8003384:	200002ec 	.word	0x200002ec

08003388 <ld_dword>:
 8003388:	8842      	ldrh	r2, [r0, #2]
 800338a:	7843      	ldrb	r3, [r0, #1]
 800338c:	7800      	ldrb	r0, [r0, #0]
 800338e:	ea43 2302 	orr.w	r3, r3, r2, lsl #8
 8003392:	ea40 2003 	orr.w	r0, r0, r3, lsl #8
 8003396:	4770      	bx	lr

08003398 <st_dword>:
 8003398:	0a0b      	lsrs	r3, r1, #8
 800339a:	7001      	strb	r1, [r0, #0]
 800339c:	7043      	strb	r3, [r0, #1]
 800339e:	0c0b      	lsrs	r3, r1, #16
 80033a0:	0e09      	lsrs	r1, r1, #24
 80033a2:	7083      	strb	r3, [r0, #2]
 80033a4:	70c1      	strb	r1, [r0, #3]
 80033a6:	4770      	bx	lr

080033a8 <mem_set>:
 80033a8:	4402      	add	r2, r0
 80033aa:	f800 1b01 	strb.w	r1, [r0], #1
 80033ae:	4290      	cmp	r0, r2
 80033b0:	d1fb      	bne.n	80033aa <mem_set+0x2>
 80033b2:	4770      	bx	lr

080033b4 <chk_lock>:
 80033b4:	4a1b      	ldr	r2, [pc, #108]	; (8003424 <chk_lock+0x70>)
 80033b6:	6813      	ldr	r3, [r2, #0]
 80033b8:	b530      	push	{r4, r5, lr}
 80033ba:	b163      	cbz	r3, 80033d6 <chk_lock+0x22>
 80033bc:	6804      	ldr	r4, [r0, #0]
 80033be:	429c      	cmp	r4, r3
 80033c0:	d107      	bne.n	80033d2 <chk_lock+0x1e>
 80033c2:	6854      	ldr	r4, [r2, #4]
 80033c4:	6883      	ldr	r3, [r0, #8]
 80033c6:	429c      	cmp	r4, r3
 80033c8:	d103      	bne.n	80033d2 <chk_lock+0x1e>
 80033ca:	6894      	ldr	r4, [r2, #8]
 80033cc:	6943      	ldr	r3, [r0, #20]
 80033ce:	429c      	cmp	r4, r3
 80033d0:	d020      	beq.n	8003414 <chk_lock+0x60>
 80033d2:	2400      	movs	r4, #0
 80033d4:	e000      	b.n	80033d8 <chk_lock+0x24>
 80033d6:	2401      	movs	r4, #1
 80033d8:	6913      	ldr	r3, [r2, #16]
 80033da:	b1cb      	cbz	r3, 8003410 <chk_lock+0x5c>
 80033dc:	6805      	ldr	r5, [r0, #0]
 80033de:	42ab      	cmp	r3, r5
 80033e0:	d107      	bne.n	80033f2 <chk_lock+0x3e>
 80033e2:	6955      	ldr	r5, [r2, #20]
 80033e4:	6883      	ldr	r3, [r0, #8]
 80033e6:	429d      	cmp	r5, r3
 80033e8:	d103      	bne.n	80033f2 <chk_lock+0x3e>
 80033ea:	6995      	ldr	r5, [r2, #24]
 80033ec:	6943      	ldr	r3, [r0, #20]
 80033ee:	429d      	cmp	r5, r3
 80033f0:	d015      	beq.n	800341e <chk_lock+0x6a>
 80033f2:	b96c      	cbnz	r4, 8003410 <chk_lock+0x5c>
 80033f4:	2902      	cmp	r1, #2
 80033f6:	bf0c      	ite	eq
 80033f8:	2000      	moveq	r0, #0
 80033fa:	2012      	movne	r0, #18
 80033fc:	bd30      	pop	{r4, r5, pc}
 80033fe:	eb02 1203 	add.w	r2, r2, r3, lsl #4
 8003402:	8993      	ldrh	r3, [r2, #12]
 8003404:	f5b3 7f80 	cmp.w	r3, #256	; 0x100
 8003408:	bf14      	ite	ne
 800340a:	2000      	movne	r0, #0
 800340c:	2010      	moveq	r0, #16
 800340e:	e7f5      	b.n	80033fc <chk_lock+0x48>
 8003410:	2000      	movs	r0, #0
 8003412:	e7f3      	b.n	80033fc <chk_lock+0x48>
 8003414:	2300      	movs	r3, #0
 8003416:	2900      	cmp	r1, #0
 8003418:	d0f1      	beq.n	80033fe <chk_lock+0x4a>
 800341a:	2010      	movs	r0, #16
 800341c:	e7ee      	b.n	80033fc <chk_lock+0x48>
 800341e:	2301      	movs	r3, #1
 8003420:	e7f9      	b.n	8003416 <chk_lock+0x62>
 8003422:	bf00      	nop
 8003424:	200000c8 	.word	0x200000c8

08003428 <inc_lock>:
 8003428:	4a1e      	ldr	r2, [pc, #120]	; (80034a4 <inc_lock+0x7c>)
 800342a:	b5f0      	push	{r4, r5, r6, r7, lr}
 800342c:	6813      	ldr	r3, [r2, #0]
 800342e:	6805      	ldr	r5, [r0, #0]
 8003430:	429d      	cmp	r5, r3
 8003432:	d107      	bne.n	8003444 <inc_lock+0x1c>
 8003434:	6856      	ldr	r6, [r2, #4]
 8003436:	6884      	ldr	r4, [r0, #8]
 8003438:	42a6      	cmp	r6, r4
 800343a:	d103      	bne.n	8003444 <inc_lock+0x1c>
 800343c:	6946      	ldr	r6, [r0, #20]
 800343e:	6894      	ldr	r4, [r2, #8]
 8003440:	42a6      	cmp	r6, r4
 8003442:	d021      	beq.n	8003488 <inc_lock+0x60>
 8003444:	6914      	ldr	r4, [r2, #16]
 8003446:	42ac      	cmp	r4, r5
 8003448:	d107      	bne.n	800345a <inc_lock+0x32>
 800344a:	6957      	ldr	r7, [r2, #20]
 800344c:	6886      	ldr	r6, [r0, #8]
 800344e:	42b7      	cmp	r7, r6
 8003450:	d103      	bne.n	800345a <inc_lock+0x32>
 8003452:	6997      	ldr	r7, [r2, #24]
 8003454:	6946      	ldr	r6, [r0, #20]
 8003456:	42b7      	cmp	r7, r6
 8003458:	d020      	beq.n	800349c <inc_lock+0x74>
 800345a:	b10b      	cbz	r3, 8003460 <inc_lock+0x38>
 800345c:	bb04      	cbnz	r4, 80034a0 <inc_lock+0x78>
 800345e:	2301      	movs	r3, #1
 8003460:	011e      	lsls	r6, r3, #4
 8003462:	1994      	adds	r4, r2, r6
 8003464:	5195      	str	r5, [r2, r6]
 8003466:	6885      	ldr	r5, [r0, #8]
 8003468:	6940      	ldr	r0, [r0, #20]
 800346a:	60a0      	str	r0, [r4, #8]
 800346c:	2000      	movs	r0, #0
 800346e:	6065      	str	r5, [r4, #4]
 8003470:	81a0      	strh	r0, [r4, #12]
 8003472:	b981      	cbnz	r1, 8003496 <inc_lock+0x6e>
 8003474:	eb02 1103 	add.w	r1, r2, r3, lsl #4
 8003478:	8989      	ldrh	r1, [r1, #12]
 800347a:	3101      	adds	r1, #1
 800347c:	b289      	uxth	r1, r1
 800347e:	eb02 1203 	add.w	r2, r2, r3, lsl #4
 8003482:	1c58      	adds	r0, r3, #1
 8003484:	8191      	strh	r1, [r2, #12]
 8003486:	bdf0      	pop	{r4, r5, r6, r7, pc}
 8003488:	2300      	movs	r3, #0
 800348a:	2900      	cmp	r1, #0
 800348c:	d0f2      	beq.n	8003474 <inc_lock+0x4c>
 800348e:	eb02 1103 	add.w	r1, r2, r3, lsl #4
 8003492:	8989      	ldrh	r1, [r1, #12]
 8003494:	b921      	cbnz	r1, 80034a0 <inc_lock+0x78>
 8003496:	f44f 7180 	mov.w	r1, #256	; 0x100
 800349a:	e7f0      	b.n	800347e <inc_lock+0x56>
 800349c:	2301      	movs	r3, #1
 800349e:	e7f4      	b.n	800348a <inc_lock+0x62>
 80034a0:	2000      	movs	r0, #0
 80034a2:	e7f0      	b.n	8003486 <inc_lock+0x5e>
 80034a4:	200000c8 	.word	0x200000c8

080034a8 <dec_lock>:
 80034a8:	3801      	subs	r0, #1
 80034aa:	2801      	cmp	r0, #1
 80034ac:	d814      	bhi.n	80034d8 <dec_lock+0x30>
 80034ae:	490b      	ldr	r1, [pc, #44]	; (80034dc <dec_lock+0x34>)
 80034b0:	0102      	lsls	r2, r0, #4
 80034b2:	1888      	adds	r0, r1, r2
 80034b4:	8983      	ldrh	r3, [r0, #12]
 80034b6:	f5b3 7f80 	cmp.w	r3, #256	; 0x100
 80034ba:	d104      	bne.n	80034c6 <dec_lock+0x1e>
 80034bc:	2300      	movs	r3, #0
 80034be:	8183      	strh	r3, [r0, #12]
 80034c0:	2000      	movs	r0, #0
 80034c2:	5088      	str	r0, [r1, r2]
 80034c4:	4770      	bx	lr
 80034c6:	2b00      	cmp	r3, #0
 80034c8:	d0fa      	beq.n	80034c0 <dec_lock+0x18>
 80034ca:	3b01      	subs	r3, #1
 80034cc:	b29b      	uxth	r3, r3
 80034ce:	8183      	strh	r3, [r0, #12]
 80034d0:	2b00      	cmp	r3, #0
 80034d2:	d0f5      	beq.n	80034c0 <dec_lock+0x18>
 80034d4:	2000      	movs	r0, #0
 80034d6:	4770      	bx	lr
 80034d8:	2002      	movs	r0, #2
 80034da:	4770      	bx	lr
 80034dc:	200000c8 	.word	0x200000c8

080034e0 <clust2sect>:
 80034e0:	69c3      	ldr	r3, [r0, #28]
 80034e2:	3902      	subs	r1, #2
 80034e4:	3b02      	subs	r3, #2
 80034e6:	428b      	cmp	r3, r1
 80034e8:	bf83      	ittte	hi
 80034ea:	8943      	ldrhhi	r3, [r0, #10]
 80034ec:	6b00      	ldrhi	r0, [r0, #48]	; 0x30
 80034ee:	fb01 0003 	mlahi	r0, r1, r3, r0
 80034f2:	2000      	movls	r0, #0
 80034f4:	4770      	bx	lr

080034f6 <clmt_clust>:
 80034f6:	6ac2      	ldr	r2, [r0, #44]	; 0x2c
 80034f8:	b510      	push	{r4, lr}
 80034fa:	6804      	ldr	r4, [r0, #0]
 80034fc:	3204      	adds	r2, #4
 80034fe:	89a3      	ldrh	r3, [r4, #12]
 8003500:	fbb1 f1f3 	udiv	r1, r1, r3
 8003504:	8963      	ldrh	r3, [r4, #10]
 8003506:	fbb1 f1f3 	udiv	r1, r1, r3
 800350a:	6810      	ldr	r0, [r2, #0]
 800350c:	b130      	cbz	r0, 800351c <clmt_clust+0x26>
 800350e:	4281      	cmp	r1, r0
 8003510:	d302      	bcc.n	8003518 <clmt_clust+0x22>
 8003512:	1a09      	subs	r1, r1, r0
 8003514:	3208      	adds	r2, #8
 8003516:	e7f8      	b.n	800350a <clmt_clust+0x14>
 8003518:	6850      	ldr	r0, [r2, #4]
 800351a:	4408      	add	r0, r1
 800351c:	bd10      	pop	{r4, pc}

0800351e <sum_sfn>:
 800351e:	4602      	mov	r2, r0
 8003520:	f100 010b 	add.w	r1, r0, #11
 8003524:	2000      	movs	r0, #0
 8003526:	01c3      	lsls	r3, r0, #7
 8003528:	ea43 0350 	orr.w	r3, r3, r0, lsr #1
 800352c:	f812 0b01 	ldrb.w	r0, [r2], #1
 8003530:	fa50 f383 	uxtab	r3, r0, r3
 8003534:	428a      	cmp	r2, r1
 8003536:	b2d8      	uxtb	r0, r3
 8003538:	d1f5      	bne.n	8003526 <sum_sfn+0x8>
 800353a:	4770      	bx	lr

0800353c <get_ldnumber>:
 800353c:	6802      	ldr	r2, [r0, #0]
 800353e:	b510      	push	{r4, lr}
 8003540:	b152      	cbz	r2, 8003558 <get_ldnumber+0x1c>
 8003542:	4611      	mov	r1, r2
 8003544:	460b      	mov	r3, r1
 8003546:	f811 4b01 	ldrb.w	r4, [r1], #1
 800354a:	2c1f      	cmp	r4, #31
 800354c:	d90c      	bls.n	8003568 <get_ldnumber+0x2c>
 800354e:	2c3a      	cmp	r4, #58	; 0x3a
 8003550:	d1f8      	bne.n	8003544 <get_ldnumber+0x8>
 8003552:	1c51      	adds	r1, r2, #1
 8003554:	428b      	cmp	r3, r1
 8003556:	d002      	beq.n	800355e <get_ldnumber+0x22>
 8003558:	f04f 30ff 	mov.w	r0, #4294967295
 800355c:	e005      	b.n	800356a <get_ldnumber+0x2e>
 800355e:	7812      	ldrb	r2, [r2, #0]
 8003560:	2a30      	cmp	r2, #48	; 0x30
 8003562:	d1f9      	bne.n	8003558 <get_ldnumber+0x1c>
 8003564:	3301      	adds	r3, #1
 8003566:	6003      	str	r3, [r0, #0]
 8003568:	2000      	movs	r0, #0
 800356a:	bd10      	pop	{r4, pc}

0800356c <validate>:
 800356c:	b538      	push	{r3, r4, r5, lr}
 800356e:	460d      	mov	r5, r1
 8003570:	4604      	mov	r4, r0
 8003572:	b918      	cbnz	r0, 800357c <validate+0x10>
 8003574:	2009      	movs	r0, #9
 8003576:	2300      	movs	r3, #0
 8003578:	602b      	str	r3, [r5, #0]
 800357a:	bd38      	pop	{r3, r4, r5, pc}
 800357c:	6803      	ldr	r3, [r0, #0]
 800357e:	2b00      	cmp	r3, #0
 8003580:	d0f8      	beq.n	8003574 <validate+0x8>
 8003582:	781a      	ldrb	r2, [r3, #0]
 8003584:	2a00      	cmp	r2, #0
 8003586:	d0f5      	beq.n	8003574 <validate+0x8>
 8003588:	8881      	ldrh	r1, [r0, #4]
 800358a:	88da      	ldrh	r2, [r3, #6]
 800358c:	4291      	cmp	r1, r2
 800358e:	d1f1      	bne.n	8003574 <validate+0x8>
 8003590:	7858      	ldrb	r0, [r3, #1]
 8003592:	f7ff feb5 	bl	8003300 <disk_status>
 8003596:	f010 0001 	ands.w	r0, r0, #1
 800359a:	d1eb      	bne.n	8003574 <validate+0x8>
 800359c:	6823      	ldr	r3, [r4, #0]
 800359e:	e7eb      	b.n	8003578 <validate+0xc>

080035a0 <mem_cpy.part.0>:
 80035a0:	3801      	subs	r0, #1
 80035a2:	440a      	add	r2, r1
 80035a4:	f811 3b01 	ldrb.w	r3, [r1], #1
 80035a8:	f800 3f01 	strb.w	r3, [r0, #1]!
 80035ac:	4291      	cmp	r1, r2
 80035ae:	d1f9      	bne.n	80035a4 <mem_cpy.part.0+0x4>
 80035b0:	4770      	bx	lr

080035b2 <ld_clust.isra.1>:
 80035b2:	7eca      	ldrb	r2, [r1, #27]
 80035b4:	7e8b      	ldrb	r3, [r1, #26]
 80035b6:	2803      	cmp	r0, #3
 80035b8:	ea43 2302 	orr.w	r3, r3, r2, lsl #8
 80035bc:	bf01      	itttt	eq
 80035be:	7d48      	ldrbeq	r0, [r1, #21]
 80035c0:	7d0a      	ldrbeq	r2, [r1, #20]
 80035c2:	ea42 2200 	orreq.w	r2, r2, r0, lsl #8
 80035c6:	ea43 4302 	orreq.w	r3, r3, r2, lsl #16
 80035ca:	4618      	mov	r0, r3
 80035cc:	4770      	bx	lr

080035ce <st_clust.isra.2>:
 80035ce:	f3c2 2307 	ubfx	r3, r2, #8, #8
 80035d2:	768a      	strb	r2, [r1, #26]
 80035d4:	76cb      	strb	r3, [r1, #27]
 80035d6:	7803      	ldrb	r3, [r0, #0]
 80035d8:	2b03      	cmp	r3, #3
 80035da:	bf01      	itttt	eq
 80035dc:	0c12      	lsreq	r2, r2, #16
 80035de:	750a      	strbeq	r2, [r1, #20]
 80035e0:	0a12      	lsreq	r2, r2, #8
 80035e2:	754a      	strbeq	r2, [r1, #21]
 80035e4:	4770      	bx	lr

080035e6 <sync_window.part.3>:
 80035e6:	b5f8      	push	{r3, r4, r5, r6, r7, lr}
 80035e8:	6b45      	ldr	r5, [r0, #52]	; 0x34
 80035ea:	f100 0738 	add.w	r7, r0, #56	; 0x38
 80035ee:	4604      	mov	r4, r0
 80035f0:	2301      	movs	r3, #1
 80035f2:	462a      	mov	r2, r5
 80035f4:	4639      	mov	r1, r7
 80035f6:	7840      	ldrb	r0, [r0, #1]
 80035f8:	f7ff feaa 	bl	8003350 <disk_write>
 80035fc:	b9a0      	cbnz	r0, 8003628 <sync_window.part.3+0x42>
 80035fe:	6aa3      	ldr	r3, [r4, #40]	; 0x28
 8003600:	6a22      	ldr	r2, [r4, #32]
 8003602:	70e0      	strb	r0, [r4, #3]
 8003604:	1aeb      	subs	r3, r5, r3
 8003606:	4293      	cmp	r3, r2
 8003608:	d301      	bcc.n	800360e <sync_window.part.3+0x28>
 800360a:	2000      	movs	r0, #0
 800360c:	bdf8      	pop	{r3, r4, r5, r6, r7, pc}
 800360e:	78a6      	ldrb	r6, [r4, #2]
 8003610:	2e01      	cmp	r6, #1
 8003612:	d9fa      	bls.n	800360a <sync_window.part.3+0x24>
 8003614:	6a23      	ldr	r3, [r4, #32]
 8003616:	7860      	ldrb	r0, [r4, #1]
 8003618:	441d      	add	r5, r3
 800361a:	462a      	mov	r2, r5
 800361c:	2301      	movs	r3, #1
 800361e:	4639      	mov	r1, r7
 8003620:	f7ff fe96 	bl	8003350 <disk_write>
 8003624:	3e01      	subs	r6, #1
 8003626:	e7f3      	b.n	8003610 <sync_window.part.3+0x2a>
 8003628:	2001      	movs	r0, #1
 800362a:	e7ef      	b.n	800360c <sync_window.part.3+0x26>

0800362c <sync_window>:
 800362c:	78c3      	ldrb	r3, [r0, #3]
 800362e:	b10b      	cbz	r3, 8003634 <sync_window+0x8>
 8003630:	f7ff bfd9 	b.w	80035e6 <sync_window.part.3>
 8003634:	4618      	mov	r0, r3
 8003636:	4770      	bx	lr

08003638 <move_window>:
 8003638:	6b43      	ldr	r3, [r0, #52]	; 0x34
 800363a:	428b      	cmp	r3, r1
 800363c:	b570      	push	{r4, r5, r6, lr}
 800363e:	4606      	mov	r6, r0
 8003640:	460d      	mov	r5, r1
 8003642:	d012      	beq.n	800366a <move_window+0x32>
 8003644:	f7ff fff2 	bl	800362c <sync_window>
 8003648:	4604      	mov	r4, r0
 800364a:	b960      	cbnz	r0, 8003666 <move_window+0x2e>
 800364c:	462a      	mov	r2, r5
 800364e:	2301      	movs	r3, #1
 8003650:	f106 0138 	add.w	r1, r6, #56	; 0x38
 8003654:	7870      	ldrb	r0, [r6, #1]
 8003656:	f7ff fe6d 	bl	8003334 <disk_read>
 800365a:	2800      	cmp	r0, #0
 800365c:	bf1c      	itt	ne
 800365e:	f04f 35ff 	movne.w	r5, #4294967295
 8003662:	2401      	movne	r4, #1
 8003664:	6375      	str	r5, [r6, #52]	; 0x34
 8003666:	4620      	mov	r0, r4
 8003668:	bd70      	pop	{r4, r5, r6, pc}
 800366a:	2400      	movs	r4, #0
 800366c:	e7fb      	b.n	8003666 <move_window+0x2e>
	...

08003670 <check_fs>:
 8003670:	2300      	movs	r3, #0
 8003672:	b510      	push	{r4, lr}
 8003674:	70c3      	strb	r3, [r0, #3]
 8003676:	f04f 33ff 	mov.w	r3, #4294967295
 800367a:	6343      	str	r3, [r0, #52]	; 0x34
 800367c:	4604      	mov	r4, r0
 800367e:	f7ff ffdb 	bl	8003638 <move_window>
 8003682:	bb30      	cbnz	r0, 80036d2 <check_fs+0x62>
 8003684:	f894 2237 	ldrb.w	r2, [r4, #567]	; 0x237
 8003688:	f894 3236 	ldrb.w	r3, [r4, #566]	; 0x236
 800368c:	ea43 2302 	orr.w	r3, r3, r2, lsl #8
 8003690:	f64a 2255 	movw	r2, #43605	; 0xaa55
 8003694:	4293      	cmp	r3, r2
 8003696:	d11e      	bne.n	80036d6 <check_fs+0x66>
 8003698:	f894 3038 	ldrb.w	r3, [r4, #56]	; 0x38
 800369c:	2be9      	cmp	r3, #233	; 0xe9
 800369e:	d005      	beq.n	80036ac <check_fs+0x3c>
 80036a0:	6ba3      	ldr	r3, [r4, #56]	; 0x38
 80036a2:	4a10      	ldr	r2, [pc, #64]	; (80036e4 <check_fs+0x74>)
 80036a4:	f003 13ff 	and.w	r3, r3, #16711935	; 0xff00ff
 80036a8:	4293      	cmp	r3, r2
 80036aa:	d116      	bne.n	80036da <check_fs+0x6a>
 80036ac:	f104 006e 	add.w	r0, r4, #110	; 0x6e
 80036b0:	f7ff fe6a 	bl	8003388 <ld_dword>
 80036b4:	4b0c      	ldr	r3, [pc, #48]	; (80036e8 <check_fs+0x78>)
 80036b6:	f020 407f 	bic.w	r0, r0, #4278190080	; 0xff000000
 80036ba:	4298      	cmp	r0, r3
 80036bc:	d00f      	beq.n	80036de <check_fs+0x6e>
 80036be:	f104 008a 	add.w	r0, r4, #138	; 0x8a
 80036c2:	f7ff fe61 	bl	8003388 <ld_dword>
 80036c6:	4b09      	ldr	r3, [pc, #36]	; (80036ec <check_fs+0x7c>)
 80036c8:	4298      	cmp	r0, r3
 80036ca:	bf14      	ite	ne
 80036cc:	2002      	movne	r0, #2
 80036ce:	2000      	moveq	r0, #0
 80036d0:	bd10      	pop	{r4, pc}
 80036d2:	2004      	movs	r0, #4
 80036d4:	e7fc      	b.n	80036d0 <check_fs+0x60>
 80036d6:	2003      	movs	r0, #3
 80036d8:	e7fa      	b.n	80036d0 <check_fs+0x60>
 80036da:	2002      	movs	r0, #2
 80036dc:	e7f8      	b.n	80036d0 <check_fs+0x60>
 80036de:	2000      	movs	r0, #0
 80036e0:	e7f6      	b.n	80036d0 <check_fs+0x60>
 80036e2:	bf00      	nop
 80036e4:	009000eb 	.word	0x009000eb
 80036e8:	00544146 	.word	0x00544146
 80036ec:	33544146 	.word	0x33544146

080036f0 <find_volume>:
 80036f0:	e92d 47ff 	stmdb	sp!, {r0, r1, r2, r3, r4, r5, r6, r7, r8, r9, sl, lr}
 80036f4:	2300      	movs	r3, #0
 80036f6:	600b      	str	r3, [r1, #0]
 80036f8:	460f      	mov	r7, r1
 80036fa:	4615      	mov	r5, r2
 80036fc:	f7ff ff1e 	bl	800353c <get_ldnumber>
 8003700:	1e06      	subs	r6, r0, #0
 8003702:	f2c0 8157 	blt.w	80039b4 <find_volume+0x2c4>
 8003706:	4baf      	ldr	r3, [pc, #700]	; (80039c4 <find_volume+0x2d4>)
 8003708:	f853 4026 	ldr.w	r4, [r3, r6, lsl #2]
 800370c:	2c00      	cmp	r4, #0
 800370e:	f000 8153 	beq.w	80039b8 <find_volume+0x2c8>
 8003712:	603c      	str	r4, [r7, #0]
 8003714:	7823      	ldrb	r3, [r4, #0]
 8003716:	f005 05fe 	and.w	r5, r5, #254	; 0xfe
 800371a:	b173      	cbz	r3, 800373a <find_volume+0x4a>
 800371c:	7860      	ldrb	r0, [r4, #1]
 800371e:	f7ff fdef 	bl	8003300 <disk_status>
 8003722:	07c1      	lsls	r1, r0, #31
 8003724:	d409      	bmi.n	800373a <find_volume+0x4a>
 8003726:	2d00      	cmp	r5, #0
 8003728:	f000 8148 	beq.w	80039bc <find_volume+0x2cc>
 800372c:	f010 0004 	ands.w	r0, r0, #4
 8003730:	d000      	beq.n	8003734 <find_volume+0x44>
 8003732:	200a      	movs	r0, #10
 8003734:	b004      	add	sp, #16
 8003736:	e8bd 87f0 	ldmia.w	sp!, {r4, r5, r6, r7, r8, r9, sl, pc}
 800373a:	2300      	movs	r3, #0
 800373c:	b2f0      	uxtb	r0, r6
 800373e:	7023      	strb	r3, [r4, #0]
 8003740:	7060      	strb	r0, [r4, #1]
 8003742:	f7ff fde7 	bl	8003314 <disk_initialize>
 8003746:	07c2      	lsls	r2, r0, #31
 8003748:	f100 813a 	bmi.w	80039c0 <find_volume+0x2d0>
 800374c:	b10d      	cbz	r5, 8003752 <find_volume+0x62>
 800374e:	0743      	lsls	r3, r0, #29
 8003750:	d4ef      	bmi.n	8003732 <find_volume+0x42>
 8003752:	f104 020c 	add.w	r2, r4, #12
 8003756:	2102      	movs	r1, #2
 8003758:	7860      	ldrb	r0, [r4, #1]
 800375a:	f7ff fe07 	bl	800336c <disk_ioctl>
 800375e:	b108      	cbz	r0, 8003764 <find_volume+0x74>
 8003760:	2001      	movs	r0, #1
 8003762:	e7e7      	b.n	8003734 <find_volume+0x44>
 8003764:	89a5      	ldrh	r5, [r4, #12]
 8003766:	f5a5 7300 	sub.w	r3, r5, #512	; 0x200
 800376a:	f5b3 6f60 	cmp.w	r3, #3584	; 0xe00
 800376e:	d8f7      	bhi.n	8003760 <find_volume+0x70>
 8003770:	1e69      	subs	r1, r5, #1
 8003772:	400d      	ands	r5, r1
 8003774:	d1f4      	bne.n	8003760 <find_volume+0x70>
 8003776:	4629      	mov	r1, r5
 8003778:	4620      	mov	r0, r4
 800377a:	f7ff ff79 	bl	8003670 <check_fs>
 800377e:	2802      	cmp	r0, #2
 8003780:	f040 80fd 	bne.w	800397e <find_volume+0x28e>
 8003784:	f504 76ff 	add.w	r6, r4, #510	; 0x1fe
 8003788:	f816 0c04 	ldrb.w	r0, [r6, #-4]
 800378c:	b110      	cbz	r0, 8003794 <find_volume+0xa4>
 800378e:	4630      	mov	r0, r6
 8003790:	f7ff fdfa 	bl	8003388 <ld_dword>
 8003794:	f84d 0025 	str.w	r0, [sp, r5, lsl #2]
 8003798:	3501      	adds	r5, #1
 800379a:	2d04      	cmp	r5, #4
 800379c:	f106 0610 	add.w	r6, r6, #16
 80037a0:	d1f2      	bne.n	8003788 <find_volume+0x98>
 80037a2:	2500      	movs	r5, #0
 80037a4:	f85d 6025 	ldr.w	r6, [sp, r5, lsl #2]
 80037a8:	2e00      	cmp	r6, #0
 80037aa:	f000 80e0 	beq.w	800396e <find_volume+0x27e>
 80037ae:	4631      	mov	r1, r6
 80037b0:	4620      	mov	r0, r4
 80037b2:	f7ff ff5d 	bl	8003670 <check_fs>
 80037b6:	2801      	cmp	r0, #1
 80037b8:	f200 80da 	bhi.w	8003970 <find_volume+0x280>
 80037bc:	f894 2044 	ldrb.w	r2, [r4, #68]	; 0x44
 80037c0:	f894 3043 	ldrb.w	r3, [r4, #67]	; 0x43
 80037c4:	f8b4 800c 	ldrh.w	r8, [r4, #12]
 80037c8:	ea43 2302 	orr.w	r3, r3, r2, lsl #8
 80037cc:	4598      	cmp	r8, r3
 80037ce:	f040 80db 	bne.w	8003988 <find_volume+0x298>
 80037d2:	f894 304f 	ldrb.w	r3, [r4, #79]	; 0x4f
 80037d6:	f894 104e 	ldrb.w	r1, [r4, #78]	; 0x4e
 80037da:	ea51 2103 	orrs.w	r1, r1, r3, lsl #8
 80037de:	d104      	bne.n	80037ea <find_volume+0xfa>
 80037e0:	f104 005c 	add.w	r0, r4, #92	; 0x5c
 80037e4:	f7ff fdd0 	bl	8003388 <ld_dword>
 80037e8:	4601      	mov	r1, r0
 80037ea:	f894 a048 	ldrb.w	sl, [r4, #72]	; 0x48
 80037ee:	6221      	str	r1, [r4, #32]
 80037f0:	f10a 33ff 	add.w	r3, sl, #4294967295
 80037f4:	2b01      	cmp	r3, #1
 80037f6:	f884 a002 	strb.w	sl, [r4, #2]
 80037fa:	f200 80c5 	bhi.w	8003988 <find_volume+0x298>
 80037fe:	f894 5045 	ldrb.w	r5, [r4, #69]	; 0x45
 8003802:	b2ab      	uxth	r3, r5
 8003804:	8163      	strh	r3, [r4, #10]
 8003806:	2b00      	cmp	r3, #0
 8003808:	f000 80be 	beq.w	8003988 <find_volume+0x298>
 800380c:	1e6b      	subs	r3, r5, #1
 800380e:	422b      	tst	r3, r5
 8003810:	f040 80ba 	bne.w	8003988 <find_volume+0x298>
 8003814:	f894 304a 	ldrb.w	r3, [r4, #74]	; 0x4a
 8003818:	f894 9049 	ldrb.w	r9, [r4, #73]	; 0x49
 800381c:	ea4f 1058 	mov.w	r0, r8, lsr #5
 8003820:	ea49 2903 	orr.w	r9, r9, r3, lsl #8
 8003824:	fbb9 f7f0 	udiv	r7, r9, r0
 8003828:	fb00 9017 	mls	r0, r0, r7, r9
 800382c:	b280      	uxth	r0, r0
 800382e:	f8a4 9008 	strh.w	r9, [r4, #8]
 8003832:	2800      	cmp	r0, #0
 8003834:	f040 80a8 	bne.w	8003988 <find_volume+0x298>
 8003838:	f894 304c 	ldrb.w	r3, [r4, #76]	; 0x4c
 800383c:	f894 004b 	ldrb.w	r0, [r4, #75]	; 0x4b
 8003840:	ea50 2003 	orrs.w	r0, r0, r3, lsl #8
 8003844:	d103      	bne.n	800384e <find_volume+0x15e>
 8003846:	f104 0058 	add.w	r0, r4, #88	; 0x58
 800384a:	f7ff fd9d 	bl	8003388 <ld_dword>
 800384e:	f894 2047 	ldrb.w	r2, [r4, #71]	; 0x47
 8003852:	f894 3046 	ldrb.w	r3, [r4, #70]	; 0x46
 8003856:	ea53 2302 	orrs.w	r3, r3, r2, lsl #8
 800385a:	f000 8095 	beq.w	8003988 <find_volume+0x298>
 800385e:	fb01 fc0a 	mul.w	ip, r1, sl
 8003862:	18fa      	adds	r2, r7, r3
 8003864:	4462      	add	r2, ip
 8003866:	4290      	cmp	r0, r2
 8003868:	f0c0 808e 	bcc.w	8003988 <find_volume+0x298>
 800386c:	1a80      	subs	r0, r0, r2
 800386e:	fbb0 f0f5 	udiv	r0, r0, r5
 8003872:	2800      	cmp	r0, #0
 8003874:	f000 8088 	beq.w	8003988 <find_volume+0x298>
 8003878:	f64f 77f5 	movw	r7, #65525	; 0xfff5
 800387c:	42b8      	cmp	r0, r7
 800387e:	bf8c      	ite	hi
 8003880:	2703      	movhi	r7, #3
 8003882:	2702      	movls	r7, #2
 8003884:	f640 75f5 	movw	r5, #4085	; 0xff5
 8003888:	42a8      	cmp	r0, r5
 800388a:	bf98      	it	ls
 800388c:	2701      	movls	r7, #1
 800388e:	4433      	add	r3, r6
 8003890:	1c85      	adds	r5, r0, #2
 8003892:	4432      	add	r2, r6
 8003894:	2f03      	cmp	r7, #3
 8003896:	61e5      	str	r5, [r4, #28]
 8003898:	6266      	str	r6, [r4, #36]	; 0x24
 800389a:	62a3      	str	r3, [r4, #40]	; 0x28
 800389c:	6322      	str	r2, [r4, #48]	; 0x30
 800389e:	d177      	bne.n	8003990 <find_volume+0x2a0>
 80038a0:	f894 2063 	ldrb.w	r2, [r4, #99]	; 0x63
 80038a4:	f894 3062 	ldrb.w	r3, [r4, #98]	; 0x62
 80038a8:	ea53 2302 	orrs.w	r3, r3, r2, lsl #8
 80038ac:	d16c      	bne.n	8003988 <find_volume+0x298>
 80038ae:	f1b9 0f00 	cmp.w	r9, #0
 80038b2:	d169      	bne.n	8003988 <find_volume+0x298>
 80038b4:	f104 0064 	add.w	r0, r4, #100	; 0x64
 80038b8:	f7ff fd66 	bl	8003388 <ld_dword>
 80038bc:	00ad      	lsls	r5, r5, #2
 80038be:	62e0      	str	r0, [r4, #44]	; 0x2c
 80038c0:	f108 33ff 	add.w	r3, r8, #4294967295
 80038c4:	441d      	add	r5, r3
 80038c6:	fbb5 f8f8 	udiv	r8, r5, r8
 80038ca:	4588      	cmp	r8, r1
 80038cc:	d85c      	bhi.n	8003988 <find_volume+0x298>
 80038ce:	f04f 33ff 	mov.w	r3, #4294967295
 80038d2:	e9c4 3305 	strd	r3, r3, [r4, #20]
 80038d6:	2f03      	cmp	r7, #3
 80038d8:	f04f 0380 	mov.w	r3, #128	; 0x80
 80038dc:	7123      	strb	r3, [r4, #4]
 80038de:	d12f      	bne.n	8003940 <find_volume+0x250>
 80038e0:	f894 2069 	ldrb.w	r2, [r4, #105]	; 0x69
 80038e4:	f894 3068 	ldrb.w	r3, [r4, #104]	; 0x68
 80038e8:	ea43 2302 	orr.w	r3, r3, r2, lsl #8
 80038ec:	2b01      	cmp	r3, #1
 80038ee:	d127      	bne.n	8003940 <find_volume+0x250>
 80038f0:	1c71      	adds	r1, r6, #1
 80038f2:	4620      	mov	r0, r4
 80038f4:	f7ff fea0 	bl	8003638 <move_window>
 80038f8:	bb10      	cbnz	r0, 8003940 <find_volume+0x250>
 80038fa:	f894 2237 	ldrb.w	r2, [r4, #567]	; 0x237
 80038fe:	f894 3236 	ldrb.w	r3, [r4, #566]	; 0x236
 8003902:	7120      	strb	r0, [r4, #4]
 8003904:	ea43 2302 	orr.w	r3, r3, r2, lsl #8
 8003908:	f64a 2255 	movw	r2, #43605	; 0xaa55
 800390c:	4293      	cmp	r3, r2
 800390e:	d117      	bne.n	8003940 <find_volume+0x250>
 8003910:	f104 0038 	add.w	r0, r4, #56	; 0x38
 8003914:	f7ff fd38 	bl	8003388 <ld_dword>
 8003918:	4b2b      	ldr	r3, [pc, #172]	; (80039c8 <find_volume+0x2d8>)
 800391a:	4298      	cmp	r0, r3
 800391c:	d110      	bne.n	8003940 <find_volume+0x250>
 800391e:	f504 7007 	add.w	r0, r4, #540	; 0x21c
 8003922:	f7ff fd31 	bl	8003388 <ld_dword>
 8003926:	4b29      	ldr	r3, [pc, #164]	; (80039cc <find_volume+0x2dc>)
 8003928:	4298      	cmp	r0, r3
 800392a:	d109      	bne.n	8003940 <find_volume+0x250>
 800392c:	f504 7008 	add.w	r0, r4, #544	; 0x220
 8003930:	f7ff fd2a 	bl	8003388 <ld_dword>
 8003934:	61a0      	str	r0, [r4, #24]
 8003936:	f504 7009 	add.w	r0, r4, #548	; 0x224
 800393a:	f7ff fd25 	bl	8003388 <ld_dword>
 800393e:	6160      	str	r0, [r4, #20]
 8003940:	4a23      	ldr	r2, [pc, #140]	; (80039d0 <find_volume+0x2e0>)
 8003942:	7027      	strb	r7, [r4, #0]
 8003944:	8813      	ldrh	r3, [r2, #0]
 8003946:	3301      	adds	r3, #1
 8003948:	b29b      	uxth	r3, r3
 800394a:	8013      	strh	r3, [r2, #0]
 800394c:	80e3      	strh	r3, [r4, #6]
 800394e:	4b21      	ldr	r3, [pc, #132]	; (80039d4 <find_volume+0x2e4>)
 8003950:	6123      	str	r3, [r4, #16]
 8003952:	4b21      	ldr	r3, [pc, #132]	; (80039d8 <find_volume+0x2e8>)
 8003954:	681a      	ldr	r2, [r3, #0]
 8003956:	4294      	cmp	r4, r2
 8003958:	bf04      	itt	eq
 800395a:	2200      	moveq	r2, #0
 800395c:	601a      	streq	r2, [r3, #0]
 800395e:	691a      	ldr	r2, [r3, #16]
 8003960:	4294      	cmp	r4, r2
 8003962:	f04f 0000 	mov.w	r0, #0
 8003966:	f47f aee5 	bne.w	8003734 <find_volume+0x44>
 800396a:	6118      	str	r0, [r3, #16]
 800396c:	e6e2      	b.n	8003734 <find_volume+0x44>
 800396e:	2003      	movs	r0, #3
 8003970:	3501      	adds	r5, #1
 8003972:	2d04      	cmp	r5, #4
 8003974:	f47f af16 	bne.w	80037a4 <find_volume+0xb4>
 8003978:	2804      	cmp	r0, #4
 800397a:	d105      	bne.n	8003988 <find_volume+0x298>
 800397c:	e6f0      	b.n	8003760 <find_volume+0x70>
 800397e:	2804      	cmp	r0, #4
 8003980:	f43f aeee 	beq.w	8003760 <find_volume+0x70>
 8003984:	2801      	cmp	r0, #1
 8003986:	d901      	bls.n	800398c <find_volume+0x29c>
 8003988:	200d      	movs	r0, #13
 800398a:	e6d3      	b.n	8003734 <find_volume+0x44>
 800398c:	462e      	mov	r6, r5
 800398e:	e715      	b.n	80037bc <find_volume+0xcc>
 8003990:	f1b9 0f00 	cmp.w	r9, #0
 8003994:	d0f8      	beq.n	8003988 <find_volume+0x298>
 8003996:	2f02      	cmp	r7, #2
 8003998:	ea4f 0045 	mov.w	r0, r5, lsl #1
 800399c:	bf18      	it	ne
 800399e:	1940      	addne	r0, r0, r5
 80039a0:	4463      	add	r3, ip
 80039a2:	bf18      	it	ne
 80039a4:	f005 0501 	andne.w	r5, r5, #1
 80039a8:	62e3      	str	r3, [r4, #44]	; 0x2c
 80039aa:	bf0c      	ite	eq
 80039ac:	4605      	moveq	r5, r0
 80039ae:	eb05 0550 	addne.w	r5, r5, r0, lsr #1
 80039b2:	e785      	b.n	80038c0 <find_volume+0x1d0>
 80039b4:	200b      	movs	r0, #11
 80039b6:	e6bd      	b.n	8003734 <find_volume+0x44>
 80039b8:	200c      	movs	r0, #12
 80039ba:	e6bb      	b.n	8003734 <find_volume+0x44>
 80039bc:	4628      	mov	r0, r5
 80039be:	e6b9      	b.n	8003734 <find_volume+0x44>
 80039c0:	2003      	movs	r0, #3
 80039c2:	e6b7      	b.n	8003734 <find_volume+0x44>
 80039c4:	200000c4 	.word	0x200000c4
 80039c8:	41615252 	.word	0x41615252
 80039cc:	61417272 	.word	0x61417272
 80039d0:	200000e8 	.word	0x200000e8
 80039d4:	200000ea 	.word	0x200000ea
 80039d8:	200000c8 	.word	0x200000c8

080039dc <put_fat>:
 80039dc:	2901      	cmp	r1, #1
 80039de:	e92d 47f0 	stmdb	sp!, {r4, r5, r6, r7, r8, r9, sl, lr}
 80039e2:	4604      	mov	r4, r0
 80039e4:	460d      	mov	r5, r1
 80039e6:	4617      	mov	r7, r2
 80039e8:	f240 808a 	bls.w	8003b00 <put_fat+0x124>
 80039ec:	69c3      	ldr	r3, [r0, #28]
 80039ee:	428b      	cmp	r3, r1
 80039f0:	f240 8086 	bls.w	8003b00 <put_fat+0x124>
 80039f4:	7803      	ldrb	r3, [r0, #0]
 80039f6:	2b02      	cmp	r3, #2
 80039f8:	d049      	beq.n	8003a8e <put_fat+0xb2>
 80039fa:	2b03      	cmp	r3, #3
 80039fc:	d060      	beq.n	8003ac0 <put_fat+0xe4>
 80039fe:	2b01      	cmp	r3, #1
 8003a00:	d17e      	bne.n	8003b00 <put_fat+0x124>
 8003a02:	eb01 0a51 	add.w	sl, r1, r1, lsr #1
 8003a06:	6a81      	ldr	r1, [r0, #40]	; 0x28
 8003a08:	8983      	ldrh	r3, [r0, #12]
 8003a0a:	fbba f3f3 	udiv	r3, sl, r3
 8003a0e:	4419      	add	r1, r3
 8003a10:	f7ff fe12 	bl	8003638 <move_window>
 8003a14:	4606      	mov	r6, r0
 8003a16:	bb78      	cbnz	r0, 8003a78 <put_fat+0x9c>
 8003a18:	89a3      	ldrh	r3, [r4, #12]
 8003a1a:	fbba f2f3 	udiv	r2, sl, r3
 8003a1e:	f104 0838 	add.w	r8, r4, #56	; 0x38
 8003a22:	fb03 a212 	mls	r2, r3, r2, sl
 8003a26:	f015 0501 	ands.w	r5, r5, #1
 8003a2a:	bf1f      	itttt	ne
 8003a2c:	f818 3002 	ldrbne.w	r3, [r8, r2]
 8003a30:	f003 010f 	andne.w	r1, r3, #15
 8003a34:	013b      	lslne	r3, r7, #4
 8003a36:	f003 03f0 	andne.w	r3, r3, #240	; 0xf0
 8003a3a:	bf14      	ite	ne
 8003a3c:	430b      	orrne	r3, r1
 8003a3e:	b2fb      	uxtbeq	r3, r7
 8003a40:	f808 3002 	strb.w	r3, [r8, r2]
 8003a44:	6aa1      	ldr	r1, [r4, #40]	; 0x28
 8003a46:	2301      	movs	r3, #1
 8003a48:	70e3      	strb	r3, [r4, #3]
 8003a4a:	f10a 0901 	add.w	r9, sl, #1
 8003a4e:	89a3      	ldrh	r3, [r4, #12]
 8003a50:	fbb9 f3f3 	udiv	r3, r9, r3
 8003a54:	4620      	mov	r0, r4
 8003a56:	4419      	add	r1, r3
 8003a58:	f7ff fdee 	bl	8003638 <move_window>
 8003a5c:	4606      	mov	r6, r0
 8003a5e:	b958      	cbnz	r0, 8003a78 <put_fat+0x9c>
 8003a60:	89a3      	ldrh	r3, [r4, #12]
 8003a62:	fbb9 f2f3 	udiv	r2, r9, r3
 8003a66:	fb03 9212 	mls	r2, r3, r2, r9
 8003a6a:	b145      	cbz	r5, 8003a7e <put_fat+0xa2>
 8003a6c:	f3c7 1707 	ubfx	r7, r7, #4, #8
 8003a70:	f808 7002 	strb.w	r7, [r8, r2]
 8003a74:	2301      	movs	r3, #1
 8003a76:	70e3      	strb	r3, [r4, #3]
 8003a78:	4630      	mov	r0, r6
 8003a7a:	e8bd 87f0 	ldmia.w	sp!, {r4, r5, r6, r7, r8, r9, sl, pc}
 8003a7e:	f818 3002 	ldrb.w	r3, [r8, r2]
 8003a82:	f3c7 2703 	ubfx	r7, r7, #8, #4
 8003a86:	f023 030f 	bic.w	r3, r3, #15
 8003a8a:	431f      	orrs	r7, r3
 8003a8c:	e7f0      	b.n	8003a70 <put_fat+0x94>
 8003a8e:	8983      	ldrh	r3, [r0, #12]
 8003a90:	085b      	lsrs	r3, r3, #1
 8003a92:	fbb1 f3f3 	udiv	r3, r1, r3
 8003a96:	6a81      	ldr	r1, [r0, #40]	; 0x28
 8003a98:	4419      	add	r1, r3
 8003a9a:	f7ff fdcd 	bl	8003638 <move_window>
 8003a9e:	4606      	mov	r6, r0
 8003aa0:	2800      	cmp	r0, #0
 8003aa2:	d1e9      	bne.n	8003a78 <put_fat+0x9c>
 8003aa4:	89a1      	ldrh	r1, [r4, #12]
 8003aa6:	006d      	lsls	r5, r5, #1
 8003aa8:	f104 0238 	add.w	r2, r4, #56	; 0x38
 8003aac:	fbb5 f3f1 	udiv	r3, r5, r1
 8003ab0:	fb01 5513 	mls	r5, r1, r3, r5
 8003ab4:	1953      	adds	r3, r2, r5
 8003ab6:	5557      	strb	r7, [r2, r5]
 8003ab8:	f3c7 2707 	ubfx	r7, r7, #8, #8
 8003abc:	705f      	strb	r7, [r3, #1]
 8003abe:	e7d9      	b.n	8003a74 <put_fat+0x98>
 8003ac0:	8983      	ldrh	r3, [r0, #12]
 8003ac2:	089b      	lsrs	r3, r3, #2
 8003ac4:	fbb1 f3f3 	udiv	r3, r1, r3
 8003ac8:	6a81      	ldr	r1, [r0, #40]	; 0x28
 8003aca:	4419      	add	r1, r3
 8003acc:	f7ff fdb4 	bl	8003638 <move_window>
 8003ad0:	4606      	mov	r6, r0
 8003ad2:	2800      	cmp	r0, #0
 8003ad4:	d1d0      	bne.n	8003a78 <put_fat+0x9c>
 8003ad6:	89a1      	ldrh	r1, [r4, #12]
 8003ad8:	00ad      	lsls	r5, r5, #2
 8003ada:	f104 0338 	add.w	r3, r4, #56	; 0x38
 8003ade:	fbb5 f2f1 	udiv	r2, r5, r1
 8003ae2:	fb01 5512 	mls	r5, r1, r2, r5
 8003ae6:	441d      	add	r5, r3
 8003ae8:	4628      	mov	r0, r5
 8003aea:	f7ff fc4d 	bl	8003388 <ld_dword>
 8003aee:	f027 4770 	bic.w	r7, r7, #4026531840	; 0xf0000000
 8003af2:	f000 4170 	and.w	r1, r0, #4026531840	; 0xf0000000
 8003af6:	4339      	orrs	r1, r7
 8003af8:	4628      	mov	r0, r5
 8003afa:	f7ff fc4d 	bl	8003398 <st_dword>
 8003afe:	e7b9      	b.n	8003a74 <put_fat+0x98>
 8003b00:	2602      	movs	r6, #2
 8003b02:	e7b9      	b.n	8003a78 <put_fat+0x9c>

08003b04 <get_fat.isra.7>:
 8003b04:	2901      	cmp	r1, #1
 8003b06:	b5f8      	push	{r3, r4, r5, r6, r7, lr}
 8003b08:	4604      	mov	r4, r0
 8003b0a:	460e      	mov	r6, r1
 8003b0c:	d968      	bls.n	8003be0 <get_fat.isra.7+0xdc>
 8003b0e:	69c3      	ldr	r3, [r0, #28]
 8003b10:	4299      	cmp	r1, r3
 8003b12:	d265      	bcs.n	8003be0 <get_fat.isra.7+0xdc>
 8003b14:	7803      	ldrb	r3, [r0, #0]
 8003b16:	2b02      	cmp	r3, #2
 8003b18:	d032      	beq.n	8003b80 <get_fat.isra.7+0x7c>
 8003b1a:	2b03      	cmp	r3, #3
 8003b1c:	d048      	beq.n	8003bb0 <get_fat.isra.7+0xac>
 8003b1e:	2b01      	cmp	r3, #1
 8003b20:	d15e      	bne.n	8003be0 <get_fat.isra.7+0xdc>
 8003b22:	eb01 0551 	add.w	r5, r1, r1, lsr #1
 8003b26:	6a81      	ldr	r1, [r0, #40]	; 0x28
 8003b28:	8983      	ldrh	r3, [r0, #12]
 8003b2a:	fbb5 f3f3 	udiv	r3, r5, r3
 8003b2e:	4419      	add	r1, r3
 8003b30:	f7ff fd82 	bl	8003638 <move_window>
 8003b34:	b110      	cbz	r0, 8003b3c <get_fat.isra.7+0x38>
 8003b36:	f04f 30ff 	mov.w	r0, #4294967295
 8003b3a:	bdf8      	pop	{r3, r4, r5, r6, r7, pc}
 8003b3c:	89a1      	ldrh	r1, [r4, #12]
 8003b3e:	6aa3      	ldr	r3, [r4, #40]	; 0x28
 8003b40:	fbb5 f2f1 	udiv	r2, r5, r1
 8003b44:	fb01 5212 	mls	r2, r1, r2, r5
 8003b48:	4422      	add	r2, r4
 8003b4a:	1c6f      	adds	r7, r5, #1
 8003b4c:	4620      	mov	r0, r4
 8003b4e:	fbb7 f1f1 	udiv	r1, r7, r1
 8003b52:	4419      	add	r1, r3
 8003b54:	f892 5038 	ldrb.w	r5, [r2, #56]	; 0x38
 8003b58:	f7ff fd6e 	bl	8003638 <move_window>
 8003b5c:	2800      	cmp	r0, #0
 8003b5e:	d1ea      	bne.n	8003b36 <get_fat.isra.7+0x32>
 8003b60:	89a2      	ldrh	r2, [r4, #12]
 8003b62:	fbb7 f3f2 	udiv	r3, r7, r2
 8003b66:	fb02 7313 	mls	r3, r2, r3, r7
 8003b6a:	441c      	add	r4, r3
 8003b6c:	07f3      	lsls	r3, r6, #31
 8003b6e:	f894 0038 	ldrb.w	r0, [r4, #56]	; 0x38
 8003b72:	ea45 2000 	orr.w	r0, r5, r0, lsl #8
 8003b76:	bf4c      	ite	mi
 8003b78:	0900      	lsrmi	r0, r0, #4
 8003b7a:	f3c0 000b 	ubfxpl	r0, r0, #0, #12
 8003b7e:	e7dc      	b.n	8003b3a <get_fat.isra.7+0x36>
 8003b80:	8983      	ldrh	r3, [r0, #12]
 8003b82:	085b      	lsrs	r3, r3, #1
 8003b84:	fbb1 f3f3 	udiv	r3, r1, r3
 8003b88:	6a81      	ldr	r1, [r0, #40]	; 0x28
 8003b8a:	4419      	add	r1, r3
 8003b8c:	f7ff fd54 	bl	8003638 <move_window>
 8003b90:	2800      	cmp	r0, #0
 8003b92:	d1d0      	bne.n	8003b36 <get_fat.isra.7+0x32>
 8003b94:	89a1      	ldrh	r1, [r4, #12]
 8003b96:	0076      	lsls	r6, r6, #1
 8003b98:	f104 0238 	add.w	r2, r4, #56	; 0x38
 8003b9c:	fbb6 f3f1 	udiv	r3, r6, r1
 8003ba0:	fb01 6613 	mls	r6, r1, r3, r6
 8003ba4:	1993      	adds	r3, r2, r6
 8003ba6:	5d90      	ldrb	r0, [r2, r6]
 8003ba8:	785b      	ldrb	r3, [r3, #1]
 8003baa:	ea40 2003 	orr.w	r0, r0, r3, lsl #8
 8003bae:	e7c4      	b.n	8003b3a <get_fat.isra.7+0x36>
 8003bb0:	8983      	ldrh	r3, [r0, #12]
 8003bb2:	089b      	lsrs	r3, r3, #2
 8003bb4:	fbb1 f3f3 	udiv	r3, r1, r3
 8003bb8:	6a81      	ldr	r1, [r0, #40]	; 0x28
 8003bba:	4419      	add	r1, r3
 8003bbc:	f7ff fd3c 	bl	8003638 <move_window>
 8003bc0:	2800      	cmp	r0, #0
 8003bc2:	d1b8      	bne.n	8003b36 <get_fat.isra.7+0x32>
 8003bc4:	89a2      	ldrh	r2, [r4, #12]
 8003bc6:	00b6      	lsls	r6, r6, #2
 8003bc8:	f104 0038 	add.w	r0, r4, #56	; 0x38
 8003bcc:	fbb6 f3f2 	udiv	r3, r6, r2
 8003bd0:	fb02 6613 	mls	r6, r2, r3, r6
 8003bd4:	4430      	add	r0, r6
 8003bd6:	f7ff fbd7 	bl	8003388 <ld_dword>
 8003bda:	f020 4070 	bic.w	r0, r0, #4026531840	; 0xf0000000
 8003bde:	e7ac      	b.n	8003b3a <get_fat.isra.7+0x36>
 8003be0:	2001      	movs	r0, #1
 8003be2:	e7aa      	b.n	8003b3a <get_fat.isra.7+0x36>

08003be4 <dir_sdi>:
 8003be4:	f5b1 1f00 	cmp.w	r1, #2097152	; 0x200000
 8003be8:	b5f8      	push	{r3, r4, r5, r6, r7, lr}
 8003bea:	4605      	mov	r5, r0
 8003bec:	460e      	mov	r6, r1
 8003bee:	d301      	bcc.n	8003bf4 <dir_sdi+0x10>
 8003bf0:	2002      	movs	r0, #2
 8003bf2:	bdf8      	pop	{r3, r4, r5, r6, r7, pc}
 8003bf4:	06ca      	lsls	r2, r1, #27
 8003bf6:	d1fb      	bne.n	8003bf0 <dir_sdi+0xc>
 8003bf8:	6882      	ldr	r2, [r0, #8]
 8003bfa:	6804      	ldr	r4, [r0, #0]
 8003bfc:	6169      	str	r1, [r5, #20]
 8003bfe:	b9d2      	cbnz	r2, 8003c36 <dir_sdi+0x52>
 8003c00:	7823      	ldrb	r3, [r4, #0]
 8003c02:	2b02      	cmp	r3, #2
 8003c04:	d901      	bls.n	8003c0a <dir_sdi+0x26>
 8003c06:	6ae3      	ldr	r3, [r4, #44]	; 0x2c
 8003c08:	b9b3      	cbnz	r3, 8003c38 <dir_sdi+0x54>
 8003c0a:	8923      	ldrh	r3, [r4, #8]
 8003c0c:	ebb3 1f56 	cmp.w	r3, r6, lsr #5
 8003c10:	d9ee      	bls.n	8003bf0 <dir_sdi+0xc>
 8003c12:	6ae3      	ldr	r3, [r4, #44]	; 0x2c
 8003c14:	61eb      	str	r3, [r5, #28]
 8003c16:	61aa      	str	r2, [r5, #24]
 8003c18:	69ea      	ldr	r2, [r5, #28]
 8003c1a:	2a00      	cmp	r2, #0
 8003c1c:	d0e8      	beq.n	8003bf0 <dir_sdi+0xc>
 8003c1e:	89a1      	ldrh	r1, [r4, #12]
 8003c20:	fbb6 f3f1 	udiv	r3, r6, r1
 8003c24:	3438      	adds	r4, #56	; 0x38
 8003c26:	fb01 6613 	mls	r6, r1, r3, r6
 8003c2a:	441a      	add	r2, r3
 8003c2c:	4434      	add	r4, r6
 8003c2e:	61ea      	str	r2, [r5, #28]
 8003c30:	622c      	str	r4, [r5, #32]
 8003c32:	2000      	movs	r0, #0
 8003c34:	e7dd      	b.n	8003bf2 <dir_sdi+0xe>
 8003c36:	4613      	mov	r3, r2
 8003c38:	8962      	ldrh	r2, [r4, #10]
 8003c3a:	89a7      	ldrh	r7, [r4, #12]
 8003c3c:	4357      	muls	r7, r2
 8003c3e:	461a      	mov	r2, r3
 8003c40:	42be      	cmp	r6, r7
 8003c42:	4611      	mov	r1, r2
 8003c44:	d204      	bcs.n	8003c50 <dir_sdi+0x6c>
 8003c46:	4620      	mov	r0, r4
 8003c48:	f7ff fc4a 	bl	80034e0 <clust2sect>
 8003c4c:	61e8      	str	r0, [r5, #28]
 8003c4e:	e7e2      	b.n	8003c16 <dir_sdi+0x32>
 8003c50:	6828      	ldr	r0, [r5, #0]
 8003c52:	f7ff ff57 	bl	8003b04 <get_fat.isra.7>
 8003c56:	1c43      	adds	r3, r0, #1
 8003c58:	4602      	mov	r2, r0
 8003c5a:	d006      	beq.n	8003c6a <dir_sdi+0x86>
 8003c5c:	2801      	cmp	r0, #1
 8003c5e:	d9c7      	bls.n	8003bf0 <dir_sdi+0xc>
 8003c60:	69e3      	ldr	r3, [r4, #28]
 8003c62:	4283      	cmp	r3, r0
 8003c64:	d9c4      	bls.n	8003bf0 <dir_sdi+0xc>
 8003c66:	1bf6      	subs	r6, r6, r7
 8003c68:	e7ea      	b.n	8003c40 <dir_sdi+0x5c>
 8003c6a:	2001      	movs	r0, #1
 8003c6c:	e7c1      	b.n	8003bf2 <dir_sdi+0xe>

08003c6e <create_chain>:
 8003c6e:	e92d 41f0 	stmdb	sp!, {r4, r5, r6, r7, r8, lr}
 8003c72:	4680      	mov	r8, r0
 8003c74:	6805      	ldr	r5, [r0, #0]
 8003c76:	460f      	mov	r7, r1
 8003c78:	b971      	cbnz	r1, 8003c98 <create_chain+0x2a>
 8003c7a:	696e      	ldr	r6, [r5, #20]
 8003c7c:	b1f6      	cbz	r6, 8003cbc <create_chain+0x4e>
 8003c7e:	69eb      	ldr	r3, [r5, #28]
 8003c80:	42b3      	cmp	r3, r6
 8003c82:	bf98      	it	ls
 8003c84:	2601      	movls	r6, #1
 8003c86:	4634      	mov	r4, r6
 8003c88:	69eb      	ldr	r3, [r5, #28]
 8003c8a:	3401      	adds	r4, #1
 8003c8c:	42a3      	cmp	r3, r4
 8003c8e:	d818      	bhi.n	8003cc2 <create_chain+0x54>
 8003c90:	2e01      	cmp	r6, #1
 8003c92:	d815      	bhi.n	8003cc0 <create_chain+0x52>
 8003c94:	2400      	movs	r4, #0
 8003c96:	e009      	b.n	8003cac <create_chain+0x3e>
 8003c98:	4628      	mov	r0, r5
 8003c9a:	f7ff ff33 	bl	8003b04 <get_fat.isra.7>
 8003c9e:	2801      	cmp	r0, #1
 8003ca0:	4604      	mov	r4, r0
 8003ca2:	d937      	bls.n	8003d14 <create_chain+0xa6>
 8003ca4:	1c43      	adds	r3, r0, #1
 8003ca6:	d104      	bne.n	8003cb2 <create_chain+0x44>
 8003ca8:	f04f 34ff 	mov.w	r4, #4294967295
 8003cac:	4620      	mov	r0, r4
 8003cae:	e8bd 81f0 	ldmia.w	sp!, {r4, r5, r6, r7, r8, pc}
 8003cb2:	69eb      	ldr	r3, [r5, #28]
 8003cb4:	4283      	cmp	r3, r0
 8003cb6:	d8f9      	bhi.n	8003cac <create_chain+0x3e>
 8003cb8:	463e      	mov	r6, r7
 8003cba:	e7e4      	b.n	8003c86 <create_chain+0x18>
 8003cbc:	2601      	movs	r6, #1
 8003cbe:	e7e2      	b.n	8003c86 <create_chain+0x18>
 8003cc0:	2402      	movs	r4, #2
 8003cc2:	4621      	mov	r1, r4
 8003cc4:	f8d8 0000 	ldr.w	r0, [r8]
 8003cc8:	f7ff ff1c 	bl	8003b04 <get_fat.isra.7>
 8003ccc:	b130      	cbz	r0, 8003cdc <create_chain+0x6e>
 8003cce:	2801      	cmp	r0, #1
 8003cd0:	d020      	beq.n	8003d14 <create_chain+0xa6>
 8003cd2:	3001      	adds	r0, #1
 8003cd4:	d0e8      	beq.n	8003ca8 <create_chain+0x3a>
 8003cd6:	42b4      	cmp	r4, r6
 8003cd8:	d1d6      	bne.n	8003c88 <create_chain+0x1a>
 8003cda:	e7db      	b.n	8003c94 <create_chain+0x26>
 8003cdc:	f04f 32ff 	mov.w	r2, #4294967295
 8003ce0:	4621      	mov	r1, r4
 8003ce2:	4628      	mov	r0, r5
 8003ce4:	f7ff fe7a 	bl	80039dc <put_fat>
 8003ce8:	b990      	cbnz	r0, 8003d10 <create_chain+0xa2>
 8003cea:	b957      	cbnz	r7, 8003d02 <create_chain+0x94>
 8003cec:	e9d5 3206 	ldrd	r3, r2, [r5, #24]
 8003cf0:	3a02      	subs	r2, #2
 8003cf2:	4293      	cmp	r3, r2
 8003cf4:	616c      	str	r4, [r5, #20]
 8003cf6:	d90f      	bls.n	8003d18 <create_chain+0xaa>
 8003cf8:	792b      	ldrb	r3, [r5, #4]
 8003cfa:	f043 0301 	orr.w	r3, r3, #1
 8003cfe:	712b      	strb	r3, [r5, #4]
 8003d00:	e7d4      	b.n	8003cac <create_chain+0x3e>
 8003d02:	4622      	mov	r2, r4
 8003d04:	4639      	mov	r1, r7
 8003d06:	4628      	mov	r0, r5
 8003d08:	f7ff fe68 	bl	80039dc <put_fat>
 8003d0c:	2800      	cmp	r0, #0
 8003d0e:	d0ed      	beq.n	8003cec <create_chain+0x7e>
 8003d10:	2801      	cmp	r0, #1
 8003d12:	d0c9      	beq.n	8003ca8 <create_chain+0x3a>
 8003d14:	2401      	movs	r4, #1
 8003d16:	e7c9      	b.n	8003cac <create_chain+0x3e>
 8003d18:	3b01      	subs	r3, #1
 8003d1a:	61ab      	str	r3, [r5, #24]
 8003d1c:	e7ec      	b.n	8003cf8 <create_chain+0x8a>

08003d1e <remove_chain>:
 8003d1e:	b5f8      	push	{r3, r4, r5, r6, r7, lr}
 8003d20:	460d      	mov	r5, r1
 8003d22:	2d01      	cmp	r5, #1
 8003d24:	4607      	mov	r7, r0
 8003d26:	4611      	mov	r1, r2
 8003d28:	d92c      	bls.n	8003d84 <remove_chain+0x66>
 8003d2a:	6804      	ldr	r4, [r0, #0]
 8003d2c:	69e3      	ldr	r3, [r4, #28]
 8003d2e:	42ab      	cmp	r3, r5
 8003d30:	d928      	bls.n	8003d84 <remove_chain+0x66>
 8003d32:	b12a      	cbz	r2, 8003d40 <remove_chain+0x22>
 8003d34:	f04f 32ff 	mov.w	r2, #4294967295
 8003d38:	4620      	mov	r0, r4
 8003d3a:	f7ff fe4f 	bl	80039dc <put_fat>
 8003d3e:	b930      	cbnz	r0, 8003d4e <remove_chain+0x30>
 8003d40:	4629      	mov	r1, r5
 8003d42:	6838      	ldr	r0, [r7, #0]
 8003d44:	f7ff fede 	bl	8003b04 <get_fat.isra.7>
 8003d48:	4606      	mov	r6, r0
 8003d4a:	b908      	cbnz	r0, 8003d50 <remove_chain+0x32>
 8003d4c:	2000      	movs	r0, #0
 8003d4e:	bdf8      	pop	{r3, r4, r5, r6, r7, pc}
 8003d50:	2801      	cmp	r0, #1
 8003d52:	d017      	beq.n	8003d84 <remove_chain+0x66>
 8003d54:	1c43      	adds	r3, r0, #1
 8003d56:	d017      	beq.n	8003d88 <remove_chain+0x6a>
 8003d58:	2200      	movs	r2, #0
 8003d5a:	4629      	mov	r1, r5
 8003d5c:	4620      	mov	r0, r4
 8003d5e:	f7ff fe3d 	bl	80039dc <put_fat>
 8003d62:	2800      	cmp	r0, #0
 8003d64:	d1f3      	bne.n	8003d4e <remove_chain+0x30>
 8003d66:	e9d4 3206 	ldrd	r3, r2, [r4, #24]
 8003d6a:	1e91      	subs	r1, r2, #2
 8003d6c:	428b      	cmp	r3, r1
 8003d6e:	d205      	bcs.n	8003d7c <remove_chain+0x5e>
 8003d70:	3301      	adds	r3, #1
 8003d72:	61a3      	str	r3, [r4, #24]
 8003d74:	7923      	ldrb	r3, [r4, #4]
 8003d76:	f043 0301 	orr.w	r3, r3, #1
 8003d7a:	7123      	strb	r3, [r4, #4]
 8003d7c:	42b2      	cmp	r2, r6
 8003d7e:	4635      	mov	r5, r6
 8003d80:	d8de      	bhi.n	8003d40 <remove_chain+0x22>
 8003d82:	e7e3      	b.n	8003d4c <remove_chain+0x2e>
 8003d84:	2002      	movs	r0, #2
 8003d86:	e7e2      	b.n	8003d4e <remove_chain+0x30>
 8003d88:	2001      	movs	r0, #1
 8003d8a:	e7e0      	b.n	8003d4e <remove_chain+0x30>

08003d8c <sync_fs>:
 8003d8c:	b5f8      	push	{r3, r4, r5, r6, r7, lr}
 8003d8e:	4604      	mov	r4, r0
 8003d90:	f7ff fc4c 	bl	800362c <sync_window>
 8003d94:	4605      	mov	r5, r0
 8003d96:	2800      	cmp	r0, #0
 8003d98:	d141      	bne.n	8003e1e <sync_fs+0x92>
 8003d9a:	7823      	ldrb	r3, [r4, #0]
 8003d9c:	2b03      	cmp	r3, #3
 8003d9e:	d136      	bne.n	8003e0e <sync_fs+0x82>
 8003da0:	7927      	ldrb	r7, [r4, #4]
 8003da2:	2f01      	cmp	r7, #1
 8003da4:	d133      	bne.n	8003e0e <sync_fs+0x82>
 8003da6:	f104 0638 	add.w	r6, r4, #56	; 0x38
 8003daa:	4601      	mov	r1, r0
 8003dac:	89a2      	ldrh	r2, [r4, #12]
 8003dae:	4630      	mov	r0, r6
 8003db0:	f7ff fafa 	bl	80033a8 <mem_set>
 8003db4:	2355      	movs	r3, #85	; 0x55
 8003db6:	f884 3236 	strb.w	r3, [r4, #566]	; 0x236
 8003dba:	23aa      	movs	r3, #170	; 0xaa
 8003dbc:	f884 3237 	strb.w	r3, [r4, #567]	; 0x237
 8003dc0:	2352      	movs	r3, #82	; 0x52
 8003dc2:	2241      	movs	r2, #65	; 0x41
 8003dc4:	2172      	movs	r1, #114	; 0x72
 8003dc6:	f884 3038 	strb.w	r3, [r4, #56]	; 0x38
 8003dca:	f884 3039 	strb.w	r3, [r4, #57]	; 0x39
 8003dce:	2361      	movs	r3, #97	; 0x61
 8003dd0:	f884 303a 	strb.w	r3, [r4, #58]	; 0x3a
 8003dd4:	f884 203b 	strb.w	r2, [r4, #59]	; 0x3b
 8003dd8:	f884 221e 	strb.w	r2, [r4, #542]	; 0x21e
 8003ddc:	f884 321f 	strb.w	r3, [r4, #543]	; 0x21f
 8003de0:	f884 121c 	strb.w	r1, [r4, #540]	; 0x21c
 8003de4:	f884 121d 	strb.w	r1, [r4, #541]	; 0x21d
 8003de8:	f504 7008 	add.w	r0, r4, #544	; 0x220
 8003dec:	69a1      	ldr	r1, [r4, #24]
 8003dee:	f7ff fad3 	bl	8003398 <st_dword>
 8003df2:	6961      	ldr	r1, [r4, #20]
 8003df4:	f504 7009 	add.w	r0, r4, #548	; 0x224
 8003df8:	f7ff face 	bl	8003398 <st_dword>
 8003dfc:	6a62      	ldr	r2, [r4, #36]	; 0x24
 8003dfe:	7860      	ldrb	r0, [r4, #1]
 8003e00:	3201      	adds	r2, #1
 8003e02:	6362      	str	r2, [r4, #52]	; 0x34
 8003e04:	463b      	mov	r3, r7
 8003e06:	4631      	mov	r1, r6
 8003e08:	f7ff faa2 	bl	8003350 <disk_write>
 8003e0c:	7125      	strb	r5, [r4, #4]
 8003e0e:	2200      	movs	r2, #0
 8003e10:	4611      	mov	r1, r2
 8003e12:	7860      	ldrb	r0, [r4, #1]
 8003e14:	f7ff faaa 	bl	800336c <disk_ioctl>
 8003e18:	3000      	adds	r0, #0
 8003e1a:	bf18      	it	ne
 8003e1c:	2001      	movne	r0, #1
 8003e1e:	bdf8      	pop	{r3, r4, r5, r6, r7, pc}

08003e20 <dir_next>:
 8003e20:	e92d 43f8 	stmdb	sp!, {r3, r4, r5, r6, r7, r8, r9, lr}
 8003e24:	69c3      	ldr	r3, [r0, #28]
 8003e26:	4605      	mov	r5, r0
 8003e28:	4688      	mov	r8, r1
 8003e2a:	b1b3      	cbz	r3, 8003e5a <dir_next+0x3a>
 8003e2c:	6947      	ldr	r7, [r0, #20]
 8003e2e:	3720      	adds	r7, #32
 8003e30:	f5b7 1f00 	cmp.w	r7, #2097152	; 0x200000
 8003e34:	d211      	bcs.n	8003e5a <dir_next+0x3a>
 8003e36:	6804      	ldr	r4, [r0, #0]
 8003e38:	89a2      	ldrh	r2, [r4, #12]
 8003e3a:	fbb7 f0f2 	udiv	r0, r7, r2
 8003e3e:	fb02 7210 	mls	r2, r2, r0, r7
 8003e42:	2a00      	cmp	r2, #0
 8003e44:	d14d      	bne.n	8003ee2 <dir_next+0xc2>
 8003e46:	69a9      	ldr	r1, [r5, #24]
 8003e48:	3301      	adds	r3, #1
 8003e4a:	61eb      	str	r3, [r5, #28]
 8003e4c:	b939      	cbnz	r1, 8003e5e <dir_next+0x3e>
 8003e4e:	8923      	ldrh	r3, [r4, #8]
 8003e50:	ebb3 1f57 	cmp.w	r3, r7, lsr #5
 8003e54:	d845      	bhi.n	8003ee2 <dir_next+0xc2>
 8003e56:	2300      	movs	r3, #0
 8003e58:	61eb      	str	r3, [r5, #28]
 8003e5a:	2004      	movs	r0, #4
 8003e5c:	e00a      	b.n	8003e74 <dir_next+0x54>
 8003e5e:	8963      	ldrh	r3, [r4, #10]
 8003e60:	3b01      	subs	r3, #1
 8003e62:	4203      	tst	r3, r0
 8003e64:	d13d      	bne.n	8003ee2 <dir_next+0xc2>
 8003e66:	4620      	mov	r0, r4
 8003e68:	f7ff fe4c 	bl	8003b04 <get_fat.isra.7>
 8003e6c:	2801      	cmp	r0, #1
 8003e6e:	4606      	mov	r6, r0
 8003e70:	d802      	bhi.n	8003e78 <dir_next+0x58>
 8003e72:	2002      	movs	r0, #2
 8003e74:	e8bd 83f8 	ldmia.w	sp!, {r3, r4, r5, r6, r7, r8, r9, pc}
 8003e78:	1c42      	adds	r2, r0, #1
 8003e7a:	d101      	bne.n	8003e80 <dir_next+0x60>
 8003e7c:	2001      	movs	r0, #1
 8003e7e:	e7f9      	b.n	8003e74 <dir_next+0x54>
 8003e80:	69e3      	ldr	r3, [r4, #28]
 8003e82:	4283      	cmp	r3, r0
 8003e84:	d827      	bhi.n	8003ed6 <dir_next+0xb6>
 8003e86:	f1b8 0f00 	cmp.w	r8, #0
 8003e8a:	d0e4      	beq.n	8003e56 <dir_next+0x36>
 8003e8c:	69a9      	ldr	r1, [r5, #24]
 8003e8e:	4628      	mov	r0, r5
 8003e90:	f7ff feed 	bl	8003c6e <create_chain>
 8003e94:	4606      	mov	r6, r0
 8003e96:	2800      	cmp	r0, #0
 8003e98:	d03c      	beq.n	8003f14 <dir_next+0xf4>
 8003e9a:	2801      	cmp	r0, #1
 8003e9c:	d0e9      	beq.n	8003e72 <dir_next+0x52>
 8003e9e:	1c43      	adds	r3, r0, #1
 8003ea0:	d0ec      	beq.n	8003e7c <dir_next+0x5c>
 8003ea2:	4620      	mov	r0, r4
 8003ea4:	f7ff fbc2 	bl	800362c <sync_window>
 8003ea8:	4680      	mov	r8, r0
 8003eaa:	2800      	cmp	r0, #0
 8003eac:	d1e6      	bne.n	8003e7c <dir_next+0x5c>
 8003eae:	4601      	mov	r1, r0
 8003eb0:	89a2      	ldrh	r2, [r4, #12]
 8003eb2:	f104 0038 	add.w	r0, r4, #56	; 0x38
 8003eb6:	f7ff fa77 	bl	80033a8 <mem_set>
 8003eba:	4631      	mov	r1, r6
 8003ebc:	4620      	mov	r0, r4
 8003ebe:	f7ff fb0f 	bl	80034e0 <clust2sect>
 8003ec2:	f04f 0901 	mov.w	r9, #1
 8003ec6:	6360      	str	r0, [r4, #52]	; 0x34
 8003ec8:	8963      	ldrh	r3, [r4, #10]
 8003eca:	4598      	cmp	r8, r3
 8003ecc:	d315      	bcc.n	8003efa <dir_next+0xda>
 8003ece:	6b63      	ldr	r3, [r4, #52]	; 0x34
 8003ed0:	eba3 0308 	sub.w	r3, r3, r8
 8003ed4:	6363      	str	r3, [r4, #52]	; 0x34
 8003ed6:	61ae      	str	r6, [r5, #24]
 8003ed8:	4631      	mov	r1, r6
 8003eda:	4620      	mov	r0, r4
 8003edc:	f7ff fb00 	bl	80034e0 <clust2sect>
 8003ee0:	61e8      	str	r0, [r5, #28]
 8003ee2:	89a1      	ldrh	r1, [r4, #12]
 8003ee4:	616f      	str	r7, [r5, #20]
 8003ee6:	f104 0338 	add.w	r3, r4, #56	; 0x38
 8003eea:	fbb7 f2f1 	udiv	r2, r7, r1
 8003eee:	fb01 7712 	mls	r7, r1, r2, r7
 8003ef2:	441f      	add	r7, r3
 8003ef4:	622f      	str	r7, [r5, #32]
 8003ef6:	2000      	movs	r0, #0
 8003ef8:	e7bc      	b.n	8003e74 <dir_next+0x54>
 8003efa:	f884 9003 	strb.w	r9, [r4, #3]
 8003efe:	4620      	mov	r0, r4
 8003f00:	f7ff fb71 	bl	80035e6 <sync_window.part.3>
 8003f04:	2800      	cmp	r0, #0
 8003f06:	d1b9      	bne.n	8003e7c <dir_next+0x5c>
 8003f08:	6b63      	ldr	r3, [r4, #52]	; 0x34
 8003f0a:	3301      	adds	r3, #1
 8003f0c:	f108 0801 	add.w	r8, r8, #1
 8003f10:	6363      	str	r3, [r4, #52]	; 0x34
 8003f12:	e7d9      	b.n	8003ec8 <dir_next+0xa8>
 8003f14:	2007      	movs	r0, #7
 8003f16:	e7ad      	b.n	8003e74 <dir_next+0x54>

08003f18 <dir_find>:
 8003f18:	e92d 4ff0 	stmdb	sp!, {r4, r5, r6, r7, r8, r9, sl, fp, lr}
 8003f1c:	2100      	movs	r1, #0
 8003f1e:	b085      	sub	sp, #20
 8003f20:	4605      	mov	r5, r0
 8003f22:	f8d0 a000 	ldr.w	sl, [r0]
 8003f26:	f7ff fe5d 	bl	8003be4 <dir_sdi>
 8003f2a:	4680      	mov	r8, r0
 8003f2c:	2800      	cmp	r0, #0
 8003f2e:	f040 809c 	bne.w	800406a <dir_find+0x152>
 8003f32:	f04f 33ff 	mov.w	r3, #4294967295
 8003f36:	f04f 09ff 	mov.w	r9, #255	; 0xff
 8003f3a:	632b      	str	r3, [r5, #48]	; 0x30
 8003f3c:	464e      	mov	r6, r9
 8003f3e:	69e9      	ldr	r1, [r5, #28]
 8003f40:	4650      	mov	r0, sl
 8003f42:	f7ff fb79 	bl	8003638 <move_window>
 8003f46:	4680      	mov	r8, r0
 8003f48:	2800      	cmp	r0, #0
 8003f4a:	f040 808e 	bne.w	800406a <dir_find+0x152>
 8003f4e:	6a2c      	ldr	r4, [r5, #32]
 8003f50:	7827      	ldrb	r7, [r4, #0]
 8003f52:	2f00      	cmp	r7, #0
 8003f54:	f000 808d 	beq.w	8004072 <dir_find+0x15a>
 8003f58:	7ae2      	ldrb	r2, [r4, #11]
 8003f5a:	2fe5      	cmp	r7, #229	; 0xe5
 8003f5c:	f002 033f 	and.w	r3, r2, #63	; 0x3f
 8003f60:	71ab      	strb	r3, [r5, #6]
 8003f62:	d003      	beq.n	8003f6c <dir_find+0x54>
 8003f64:	0712      	lsls	r2, r2, #28
 8003f66:	d505      	bpl.n	8003f74 <dir_find+0x5c>
 8003f68:	2b0f      	cmp	r3, #15
 8003f6a:	d005      	beq.n	8003f78 <dir_find+0x60>
 8003f6c:	f04f 33ff 	mov.w	r3, #4294967295
 8003f70:	632b      	str	r3, [r5, #48]	; 0x30
 8003f72:	e058      	b.n	8004026 <dir_find+0x10e>
 8003f74:	2b0f      	cmp	r3, #15
 8003f76:	d15d      	bne.n	8004034 <dir_find+0x11c>
 8003f78:	f895 302f 	ldrb.w	r3, [r5, #47]	; 0x2f
 8003f7c:	0658      	lsls	r0, r3, #25
 8003f7e:	d448      	bmi.n	8004012 <dir_find+0xfa>
 8003f80:	0679      	lsls	r1, r7, #25
 8003f82:	d54e      	bpl.n	8004022 <dir_find+0x10a>
 8003f84:	696b      	ldr	r3, [r5, #20]
 8003f86:	f894 900d 	ldrb.w	r9, [r4, #13]
 8003f8a:	632b      	str	r3, [r5, #48]	; 0x30
 8003f8c:	f007 07bf 	and.w	r7, r7, #191	; 0xbf
 8003f90:	7b63      	ldrb	r3, [r4, #13]
 8003f92:	454b      	cmp	r3, r9
 8003f94:	d147      	bne.n	8004026 <dir_find+0x10e>
 8003f96:	7ee3      	ldrb	r3, [r4, #27]
 8003f98:	7ea6      	ldrb	r6, [r4, #26]
 8003f9a:	ea46 2603 	orr.w	r6, r6, r3, lsl #8
 8003f9e:	b236      	sxth	r6, r6
 8003fa0:	2e00      	cmp	r6, #0
 8003fa2:	d140      	bne.n	8004026 <dir_find+0x10e>
 8003fa4:	f894 8000 	ldrb.w	r8, [r4]
 8003fa8:	f8da b010 	ldr.w	fp, [sl, #16]
 8003fac:	f008 083f 	and.w	r8, r8, #63	; 0x3f
 8003fb0:	f108 33ff 	add.w	r3, r8, #4294967295
 8003fb4:	f04f 080d 	mov.w	r8, #13
 8003fb8:	fb08 f803 	mul.w	r8, r8, r3
 8003fbc:	2101      	movs	r1, #1
 8003fbe:	4b2e      	ldr	r3, [pc, #184]	; (8004078 <dir_find+0x160>)
 8003fc0:	5cf2      	ldrb	r2, [r6, r3]
 8003fc2:	18a3      	adds	r3, r4, r2
 8003fc4:	7858      	ldrb	r0, [r3, #1]
 8003fc6:	5ca3      	ldrb	r3, [r4, r2]
 8003fc8:	ea43 2300 	orr.w	r3, r3, r0, lsl #8
 8003fcc:	b369      	cbz	r1, 800402a <dir_find+0x112>
 8003fce:	f1b8 0ffe 	cmp.w	r8, #254	; 0xfe
 8003fd2:	d828      	bhi.n	8004026 <dir_find+0x10e>
 8003fd4:	4618      	mov	r0, r3
 8003fd6:	9303      	str	r3, [sp, #12]
 8003fd8:	f000 fd86 	bl	8004ae8 <ff_wtoupper>
 8003fdc:	f108 0201 	add.w	r2, r8, #1
 8003fe0:	9002      	str	r0, [sp, #8]
 8003fe2:	f83b 0018 	ldrh.w	r0, [fp, r8, lsl #1]
 8003fe6:	9201      	str	r2, [sp, #4]
 8003fe8:	f000 fd7e 	bl	8004ae8 <ff_wtoupper>
 8003fec:	9902      	ldr	r1, [sp, #8]
 8003fee:	4281      	cmp	r1, r0
 8003ff0:	d119      	bne.n	8004026 <dir_find+0x10e>
 8003ff2:	9b03      	ldr	r3, [sp, #12]
 8003ff4:	9a01      	ldr	r2, [sp, #4]
 8003ff6:	4619      	mov	r1, r3
 8003ff8:	4690      	mov	r8, r2
 8003ffa:	3601      	adds	r6, #1
 8003ffc:	2e0d      	cmp	r6, #13
 8003ffe:	d1de      	bne.n	8003fbe <dir_find+0xa6>
 8004000:	7823      	ldrb	r3, [r4, #0]
 8004002:	065a      	lsls	r2, r3, #25
 8004004:	d503      	bpl.n	800400e <dir_find+0xf6>
 8004006:	b111      	cbz	r1, 800400e <dir_find+0xf6>
 8004008:	f83b 3018 	ldrh.w	r3, [fp, r8, lsl #1]
 800400c:	b95b      	cbnz	r3, 8004026 <dir_find+0x10e>
 800400e:	3f01      	subs	r7, #1
 8004010:	b2fe      	uxtb	r6, r7
 8004012:	2100      	movs	r1, #0
 8004014:	4628      	mov	r0, r5
 8004016:	f7ff ff03 	bl	8003e20 <dir_next>
 800401a:	4680      	mov	r8, r0
 800401c:	2800      	cmp	r0, #0
 800401e:	d08e      	beq.n	8003f3e <dir_find+0x26>
 8004020:	e023      	b.n	800406a <dir_find+0x152>
 8004022:	42be      	cmp	r6, r7
 8004024:	d0b4      	beq.n	8003f90 <dir_find+0x78>
 8004026:	26ff      	movs	r6, #255	; 0xff
 8004028:	e7f3      	b.n	8004012 <dir_find+0xfa>
 800402a:	f64f 72ff 	movw	r2, #65535	; 0xffff
 800402e:	4293      	cmp	r3, r2
 8004030:	d0e3      	beq.n	8003ffa <dir_find+0xe2>
 8004032:	e7f8      	b.n	8004026 <dir_find+0x10e>
 8004034:	b926      	cbnz	r6, 8004040 <dir_find+0x128>
 8004036:	4620      	mov	r0, r4
 8004038:	f7ff fa71 	bl	800351e <sum_sfn>
 800403c:	4548      	cmp	r0, r9
 800403e:	d014      	beq.n	800406a <dir_find+0x152>
 8004040:	f895 302f 	ldrb.w	r3, [r5, #47]	; 0x2f
 8004044:	07db      	lsls	r3, r3, #31
 8004046:	d491      	bmi.n	8003f6c <dir_find+0x54>
 8004048:	f105 0224 	add.w	r2, r5, #36	; 0x24
 800404c:	f104 010b 	add.w	r1, r4, #11
 8004050:	f814 3b01 	ldrb.w	r3, [r4], #1
 8004054:	f812 0b01 	ldrb.w	r0, [r2], #1
 8004058:	428c      	cmp	r4, r1
 800405a:	eba3 0300 	sub.w	r3, r3, r0
 800405e:	d002      	beq.n	8004066 <dir_find+0x14e>
 8004060:	2b00      	cmp	r3, #0
 8004062:	d0f5      	beq.n	8004050 <dir_find+0x138>
 8004064:	e782      	b.n	8003f6c <dir_find+0x54>
 8004066:	2b00      	cmp	r3, #0
 8004068:	d180      	bne.n	8003f6c <dir_find+0x54>
 800406a:	4640      	mov	r0, r8
 800406c:	b005      	add	sp, #20
 800406e:	e8bd 8ff0 	ldmia.w	sp!, {r4, r5, r6, r7, r8, r9, sl, fp, pc}
 8004072:	f04f 0804 	mov.w	r8, #4
 8004076:	e7f8      	b.n	800406a <dir_find+0x152>
 8004078:	0800672c 	.word	0x0800672c

0800407c <dir_register>:
 800407c:	e92d 4ff0 	stmdb	sp!, {r4, r5, r6, r7, r8, r9, sl, fp, lr}
 8004080:	f890 402f 	ldrb.w	r4, [r0, #47]	; 0x2f
 8004084:	f014 04a0 	ands.w	r4, r4, #160	; 0xa0
 8004088:	b089      	sub	sp, #36	; 0x24
 800408a:	4605      	mov	r5, r0
 800408c:	f040 8084 	bne.w	8004198 <dir_register+0x11c>
 8004090:	6807      	ldr	r7, [r0, #0]
 8004092:	693a      	ldr	r2, [r7, #16]
 8004094:	f832 3014 	ldrh.w	r3, [r2, r4, lsl #1]
 8004098:	2b00      	cmp	r3, #0
 800409a:	d15d      	bne.n	8004158 <dir_register+0xdc>
 800409c:	f105 0624 	add.w	r6, r5, #36	; 0x24
 80040a0:	220c      	movs	r2, #12
 80040a2:	4631      	mov	r1, r6
 80040a4:	a805      	add	r0, sp, #20
 80040a6:	f7ff fa7b 	bl	80035a0 <mem_cpy.part.0>
 80040aa:	f89d 301f 	ldrb.w	r3, [sp, #31]
 80040ae:	07db      	lsls	r3, r3, #31
 80040b0:	d57b      	bpl.n	80041aa <dir_register+0x12e>
 80040b2:	2340      	movs	r3, #64	; 0x40
 80040b4:	f8df 822c 	ldr.w	r8, [pc, #556]	; 80042e4 <dir_register+0x268>
 80040b8:	f885 302f 	strb.w	r3, [r5, #47]	; 0x2f
 80040bc:	f04f 0901 	mov.w	r9, #1
 80040c0:	220b      	movs	r2, #11
 80040c2:	a905      	add	r1, sp, #20
 80040c4:	4630      	mov	r0, r6
 80040c6:	f8d7 a010 	ldr.w	sl, [r7, #16]
 80040ca:	f7ff fa69 	bl	80035a0 <mem_cpy.part.0>
 80040ce:	f1b9 0f05 	cmp.w	r9, #5
 80040d2:	d952      	bls.n	800417a <dir_register+0xfe>
 80040d4:	f1aa 0102 	sub.w	r1, sl, #2
 80040d8:	464b      	mov	r3, r9
 80040da:	f831 2f02 	ldrh.w	r2, [r1, #2]!
 80040de:	2a00      	cmp	r2, #0
 80040e0:	d13c      	bne.n	800415c <dir_register+0xe0>
 80040e2:	2207      	movs	r2, #7
 80040e4:	f003 000f 	and.w	r0, r3, #15
 80040e8:	f100 0130 	add.w	r1, r0, #48	; 0x30
 80040ec:	2939      	cmp	r1, #57	; 0x39
 80040ee:	bf88      	it	hi
 80040f0:	f100 0137 	addhi.w	r1, r0, #55	; 0x37
 80040f4:	3a01      	subs	r2, #1
 80040f6:	a803      	add	r0, sp, #12
 80040f8:	4410      	add	r0, r2
 80040fa:	091b      	lsrs	r3, r3, #4
 80040fc:	7041      	strb	r1, [r0, #1]
 80040fe:	d1f1      	bne.n	80040e4 <dir_register+0x68>
 8004100:	a908      	add	r1, sp, #32
 8004102:	4411      	add	r1, r2
 8004104:	207e      	movs	r0, #126	; 0x7e
 8004106:	f801 0c14 	strb.w	r0, [r1, #-20]
 800410a:	429a      	cmp	r2, r3
 800410c:	d004      	beq.n	8004118 <dir_register+0x9c>
 800410e:	5cf1      	ldrb	r1, [r6, r3]
 8004110:	2920      	cmp	r1, #32
 8004112:	f103 0001 	add.w	r0, r3, #1
 8004116:	d132      	bne.n	800417e <dir_register+0x102>
 8004118:	4433      	add	r3, r6
 800411a:	2a07      	cmp	r2, #7
 800411c:	bf9b      	ittet	ls
 800411e:	a908      	addls	r1, sp, #32
 8004120:	1889      	addls	r1, r1, r2
 8004122:	2120      	movhi	r1, #32
 8004124:	f811 1c14 	ldrbls.w	r1, [r1, #-20]
 8004128:	f803 1b01 	strb.w	r1, [r3], #1
 800412c:	eba3 0106 	sub.w	r1, r3, r6
 8004130:	bf98      	it	ls
 8004132:	3201      	addls	r2, #1
 8004134:	2907      	cmp	r1, #7
 8004136:	d9f0      	bls.n	800411a <dir_register+0x9e>
 8004138:	4628      	mov	r0, r5
 800413a:	f7ff feed 	bl	8003f18 <dir_find>
 800413e:	4682      	mov	sl, r0
 8004140:	bb68      	cbnz	r0, 800419e <dir_register+0x122>
 8004142:	f109 0901 	add.w	r9, r9, #1
 8004146:	f1b9 0f64 	cmp.w	r9, #100	; 0x64
 800414a:	d1b9      	bne.n	80040c0 <dir_register+0x44>
 800414c:	f04f 0a07 	mov.w	sl, #7
 8004150:	4650      	mov	r0, sl
 8004152:	b009      	add	sp, #36	; 0x24
 8004154:	e8bd 8ff0 	ldmia.w	sp!, {r4, r5, r6, r7, r8, r9, sl, fp, pc}
 8004158:	3401      	adds	r4, #1
 800415a:	e79b      	b.n	8004094 <dir_register+0x18>
 800415c:	2010      	movs	r0, #16
 800415e:	f002 0c01 	and.w	ip, r2, #1
 8004162:	eb0c 0343 	add.w	r3, ip, r3, lsl #1
 8004166:	f413 3f80 	tst.w	r3, #65536	; 0x10000
 800416a:	bf18      	it	ne
 800416c:	ea83 0308 	eorne.w	r3, r3, r8
 8004170:	3801      	subs	r0, #1
 8004172:	ea4f 0252 	mov.w	r2, r2, lsr #1
 8004176:	d1f2      	bne.n	800415e <dir_register+0xe2>
 8004178:	e7af      	b.n	80040da <dir_register+0x5e>
 800417a:	464b      	mov	r3, r9
 800417c:	e7b1      	b.n	80040e2 <dir_register+0x66>
 800417e:	4603      	mov	r3, r0
 8004180:	e7c3      	b.n	800410a <dir_register+0x8e>
 8004182:	4680      	mov	r8, r0
 8004184:	2101      	movs	r1, #1
 8004186:	4628      	mov	r0, r5
 8004188:	f7ff fe4a 	bl	8003e20 <dir_next>
 800418c:	4682      	mov	sl, r0
 800418e:	b310      	cbz	r0, 80041d6 <dir_register+0x15a>
 8004190:	f1ba 0f04 	cmp.w	sl, #4
 8004194:	d0da      	beq.n	800414c <dir_register+0xd0>
 8004196:	e7db      	b.n	8004150 <dir_register+0xd4>
 8004198:	f04f 0a06 	mov.w	sl, #6
 800419c:	e7d8      	b.n	8004150 <dir_register+0xd4>
 800419e:	2804      	cmp	r0, #4
 80041a0:	d1d6      	bne.n	8004150 <dir_register+0xd4>
 80041a2:	f89d 301f 	ldrb.w	r3, [sp, #31]
 80041a6:	f885 302f 	strb.w	r3, [r5, #47]	; 0x2f
 80041aa:	f89d 301f 	ldrb.w	r3, [sp, #31]
 80041ae:	f8d5 9000 	ldr.w	r9, [r5]
 80041b2:	079b      	lsls	r3, r3, #30
 80041b4:	bf48      	it	mi
 80041b6:	340c      	addmi	r4, #12
 80041b8:	f04f 0100 	mov.w	r1, #0
 80041bc:	4628      	mov	r0, r5
 80041be:	bf49      	itett	mi
 80041c0:	230d      	movmi	r3, #13
 80041c2:	2401      	movpl	r4, #1
 80041c4:	fbb4 f4f3 	udivmi	r4, r4, r3
 80041c8:	3401      	addmi	r4, #1
 80041ca:	f7ff fd0b 	bl	8003be4 <dir_sdi>
 80041ce:	4682      	mov	sl, r0
 80041d0:	2800      	cmp	r0, #0
 80041d2:	d1dd      	bne.n	8004190 <dir_register+0x114>
 80041d4:	4680      	mov	r8, r0
 80041d6:	69e9      	ldr	r1, [r5, #28]
 80041d8:	4648      	mov	r0, r9
 80041da:	f7ff fa2d 	bl	8003638 <move_window>
 80041de:	4682      	mov	sl, r0
 80041e0:	2800      	cmp	r0, #0
 80041e2:	d1d5      	bne.n	8004190 <dir_register+0x114>
 80041e4:	6a2b      	ldr	r3, [r5, #32]
 80041e6:	781b      	ldrb	r3, [r3, #0]
 80041e8:	2be5      	cmp	r3, #229	; 0xe5
 80041ea:	d001      	beq.n	80041f0 <dir_register+0x174>
 80041ec:	2b00      	cmp	r3, #0
 80041ee:	d1c8      	bne.n	8004182 <dir_register+0x106>
 80041f0:	f108 0801 	add.w	r8, r8, #1
 80041f4:	4544      	cmp	r4, r8
 80041f6:	d1c5      	bne.n	8004184 <dir_register+0x108>
 80041f8:	3c01      	subs	r4, #1
 80041fa:	d056      	beq.n	80042aa <dir_register+0x22e>
 80041fc:	6969      	ldr	r1, [r5, #20]
 80041fe:	4628      	mov	r0, r5
 8004200:	eba1 1144 	sub.w	r1, r1, r4, lsl #5
 8004204:	f7ff fcee 	bl	8003be4 <dir_sdi>
 8004208:	4682      	mov	sl, r0
 800420a:	2800      	cmp	r0, #0
 800420c:	d1a0      	bne.n	8004150 <dir_register+0xd4>
 800420e:	4630      	mov	r0, r6
 8004210:	f7ff f985 	bl	800351e <sum_sfn>
 8004214:	f64f 79ff 	movw	r9, #65535	; 0xffff
 8004218:	4680      	mov	r8, r0
 800421a:	69e9      	ldr	r1, [r5, #28]
 800421c:	4638      	mov	r0, r7
 800421e:	f7ff fa0b 	bl	8003638 <move_window>
 8004222:	4682      	mov	sl, r0
 8004224:	2800      	cmp	r0, #0
 8004226:	d193      	bne.n	8004150 <dir_register+0xd4>
 8004228:	6a2b      	ldr	r3, [r5, #32]
 800422a:	f8d7 e010 	ldr.w	lr, [r7, #16]
 800422e:	f883 800d 	strb.w	r8, [r3, #13]
 8004232:	220f      	movs	r2, #15
 8004234:	b2e1      	uxtb	r1, r4
 8004236:	f04f 0c0d 	mov.w	ip, #13
 800423a:	72da      	strb	r2, [r3, #11]
 800423c:	1e4a      	subs	r2, r1, #1
 800423e:	fb0c f202 	mul.w	r2, ip, r2
 8004242:	7318      	strb	r0, [r3, #12]
 8004244:	7698      	strb	r0, [r3, #26]
 8004246:	76d8      	strb	r0, [r3, #27]
 8004248:	9201      	str	r2, [sp, #4]
 800424a:	4684      	mov	ip, r0
 800424c:	4548      	cmp	r0, r9
 800424e:	bf1f      	itttt	ne
 8004250:	9a01      	ldrne	r2, [sp, #4]
 8004252:	f83e 0012 	ldrhne.w	r0, [lr, r2, lsl #1]
 8004256:	3201      	addne	r2, #1
 8004258:	9201      	strne	r2, [sp, #4]
 800425a:	4a21      	ldr	r2, [pc, #132]	; (80042e0 <dir_register+0x264>)
 800425c:	f81c a002 	ldrb.w	sl, [ip, r2]
 8004260:	f10c 0c01 	add.w	ip, ip, #1
 8004264:	eb03 0b0a 	add.w	fp, r3, sl
 8004268:	f803 000a 	strb.w	r0, [r3, sl]
 800426c:	ea4f 2a10 	mov.w	sl, r0, lsr #8
 8004270:	2800      	cmp	r0, #0
 8004272:	bf08      	it	eq
 8004274:	4648      	moveq	r0, r9
 8004276:	f1bc 0f0d 	cmp.w	ip, #13
 800427a:	f88b a001 	strb.w	sl, [fp, #1]
 800427e:	d1e5      	bne.n	800424c <dir_register+0x1d0>
 8004280:	4548      	cmp	r0, r9
 8004282:	d003      	beq.n	800428c <dir_register+0x210>
 8004284:	9a01      	ldr	r2, [sp, #4]
 8004286:	f83e 2012 	ldrh.w	r2, [lr, r2, lsl #1]
 800428a:	b90a      	cbnz	r2, 8004290 <dir_register+0x214>
 800428c:	f041 0140 	orr.w	r1, r1, #64	; 0x40
 8004290:	7019      	strb	r1, [r3, #0]
 8004292:	2301      	movs	r3, #1
 8004294:	70fb      	strb	r3, [r7, #3]
 8004296:	2100      	movs	r1, #0
 8004298:	4628      	mov	r0, r5
 800429a:	f7ff fdc1 	bl	8003e20 <dir_next>
 800429e:	4682      	mov	sl, r0
 80042a0:	2800      	cmp	r0, #0
 80042a2:	f47f af55 	bne.w	8004150 <dir_register+0xd4>
 80042a6:	3c01      	subs	r4, #1
 80042a8:	d1b7      	bne.n	800421a <dir_register+0x19e>
 80042aa:	69e9      	ldr	r1, [r5, #28]
 80042ac:	4638      	mov	r0, r7
 80042ae:	f7ff f9c3 	bl	8003638 <move_window>
 80042b2:	4682      	mov	sl, r0
 80042b4:	2800      	cmp	r0, #0
 80042b6:	f47f af4b 	bne.w	8004150 <dir_register+0xd4>
 80042ba:	4601      	mov	r1, r0
 80042bc:	2220      	movs	r2, #32
 80042be:	6a28      	ldr	r0, [r5, #32]
 80042c0:	f7ff f872 	bl	80033a8 <mem_set>
 80042c4:	220b      	movs	r2, #11
 80042c6:	4631      	mov	r1, r6
 80042c8:	6a28      	ldr	r0, [r5, #32]
 80042ca:	f7ff f969 	bl	80035a0 <mem_cpy.part.0>
 80042ce:	f895 302f 	ldrb.w	r3, [r5, #47]	; 0x2f
 80042d2:	6a2a      	ldr	r2, [r5, #32]
 80042d4:	f003 0318 	and.w	r3, r3, #24
 80042d8:	7313      	strb	r3, [r2, #12]
 80042da:	2301      	movs	r3, #1
 80042dc:	70fb      	strb	r3, [r7, #3]
 80042de:	e737      	b.n	8004150 <dir_register+0xd4>
 80042e0:	0800672c 	.word	0x0800672c
 80042e4:	00011021 	.word	0x00011021

080042e8 <follow_path>:
 80042e8:	e92d 4ff7 	stmdb	sp!, {r0, r1, r2, r4, r5, r6, r7, r8, r9, sl, fp, lr}
 80042ec:	6803      	ldr	r3, [r0, #0]
 80042ee:	9300      	str	r3, [sp, #0]
 80042f0:	4607      	mov	r7, r0
 80042f2:	468a      	mov	sl, r1
 80042f4:	f811 3b01 	ldrb.w	r3, [r1], #1
 80042f8:	2b2f      	cmp	r3, #47	; 0x2f
 80042fa:	d0fa      	beq.n	80042f2 <follow_path+0xa>
 80042fc:	2b5c      	cmp	r3, #92	; 0x5c
 80042fe:	d0f8      	beq.n	80042f2 <follow_path+0xa>
 8004300:	2100      	movs	r1, #0
 8004302:	60b9      	str	r1, [r7, #8]
 8004304:	f89a 3000 	ldrb.w	r3, [sl]
 8004308:	2b1f      	cmp	r3, #31
 800430a:	f200 80b1 	bhi.w	8004470 <follow_path+0x188>
 800430e:	2380      	movs	r3, #128	; 0x80
 8004310:	4638      	mov	r0, r7
 8004312:	f887 302f 	strb.w	r3, [r7, #47]	; 0x2f
 8004316:	b003      	add	sp, #12
 8004318:	e8bd 4ff0 	ldmia.w	sp!, {r4, r5, r6, r7, r8, r9, sl, fp, lr}
 800431c:	f7ff bc62 	b.w	8003be4 <dir_sdi>
 8004320:	f5b4 7f80 	cmp.w	r4, #256	; 0x100
 8004324:	d00b      	beq.n	800433e <follow_path+0x56>
 8004326:	2101      	movs	r1, #1
 8004328:	f000 fbc0 	bl	8004aac <ff_convert>
 800432c:	b138      	cbz	r0, 800433e <follow_path+0x56>
 800432e:	287f      	cmp	r0, #127	; 0x7f
 8004330:	d807      	bhi.n	8004342 <follow_path+0x5a>
 8004332:	4986      	ldr	r1, [pc, #536]	; (800454c <follow_path+0x264>)
 8004334:	f811 2f01 	ldrb.w	r2, [r1, #1]!
 8004338:	b11a      	cbz	r2, 8004342 <follow_path+0x5a>
 800433a:	4290      	cmp	r0, r2
 800433c:	d1fa      	bne.n	8004334 <follow_path+0x4c>
 800433e:	2006      	movs	r0, #6
 8004340:	e04e      	b.n	80043e0 <follow_path+0xf8>
 8004342:	f825 0f02 	strh.w	r0, [r5, #2]!
 8004346:	4626      	mov	r6, r4
 8004348:	e09a      	b.n	8004480 <follow_path+0x198>
 800434a:	f832 1d02 	ldrh.w	r1, [r2, #-2]!
 800434e:	2920      	cmp	r1, #32
 8004350:	d002      	beq.n	8004358 <follow_path+0x70>
 8004352:	292e      	cmp	r1, #46	; 0x2e
 8004354:	f040 80b3 	bne.w	80044be <follow_path+0x1d6>
 8004358:	3e01      	subs	r6, #1
 800435a:	e0ad      	b.n	80044b8 <follow_path+0x1d0>
 800435c:	3101      	adds	r1, #1
 800435e:	e0be      	b.n	80044de <follow_path+0x1f6>
 8004360:	45c1      	cmp	r9, r8
 8004362:	d205      	bcs.n	8004370 <follow_path+0x88>
 8004364:	42b2      	cmp	r2, r6
 8004366:	d14b      	bne.n	8004400 <follow_path+0x118>
 8004368:	f1b8 0f0b 	cmp.w	r8, #11
 800436c:	d140      	bne.n	80043f0 <follow_path+0x108>
 800436e:	e002      	b.n	8004376 <follow_path+0x8e>
 8004370:	f1b8 0f0b 	cmp.w	r8, #11
 8004374:	d137      	bne.n	80043e6 <follow_path+0xfe>
 8004376:	f044 0403 	orr.w	r4, r4, #3
 800437a:	f04f 080b 	mov.w	r8, #11
 800437e:	f897 3024 	ldrb.w	r3, [r7, #36]	; 0x24
 8004382:	2be5      	cmp	r3, #229	; 0xe5
 8004384:	bf04      	itt	eq
 8004386:	2305      	moveq	r3, #5
 8004388:	f887 3024 	strbeq.w	r3, [r7, #36]	; 0x24
 800438c:	f1b8 0f08 	cmp.w	r8, #8
 8004390:	bf04      	itt	eq
 8004392:	00ad      	lsleq	r5, r5, #2
 8004394:	b2ed      	uxtbeq	r5, r5
 8004396:	f005 030c 	and.w	r3, r5, #12
 800439a:	2b0c      	cmp	r3, #12
 800439c:	d003      	beq.n	80043a6 <follow_path+0xbe>
 800439e:	f005 0203 	and.w	r2, r5, #3
 80043a2:	2a03      	cmp	r2, #3
 80043a4:	d101      	bne.n	80043aa <follow_path+0xc2>
 80043a6:	f044 0402 	orr.w	r4, r4, #2
 80043aa:	07a1      	lsls	r1, r4, #30
 80043ac:	d409      	bmi.n	80043c2 <follow_path+0xda>
 80043ae:	f005 0503 	and.w	r5, r5, #3
 80043b2:	2d01      	cmp	r5, #1
 80043b4:	bf08      	it	eq
 80043b6:	f044 0410 	orreq.w	r4, r4, #16
 80043ba:	2b04      	cmp	r3, #4
 80043bc:	bf08      	it	eq
 80043be:	f044 0408 	orreq.w	r4, r4, #8
 80043c2:	f887 402f 	strb.w	r4, [r7, #47]	; 0x2f
 80043c6:	4638      	mov	r0, r7
 80043c8:	f7ff fda6 	bl	8003f18 <dir_find>
 80043cc:	f897 302f 	ldrb.w	r3, [r7, #47]	; 0x2f
 80043d0:	2800      	cmp	r0, #0
 80043d2:	d039      	beq.n	8004448 <follow_path+0x160>
 80043d4:	2804      	cmp	r0, #4
 80043d6:	d103      	bne.n	80043e0 <follow_path+0xf8>
 80043d8:	f013 0f04 	tst.w	r3, #4
 80043dc:	bf08      	it	eq
 80043de:	2005      	moveq	r0, #5
 80043e0:	b003      	add	sp, #12
 80043e2:	e8bd 8ff0 	ldmia.w	sp!, {r4, r5, r6, r7, r8, r9, sl, fp, pc}
 80043e6:	42b2      	cmp	r2, r6
 80043e8:	d002      	beq.n	80043f0 <follow_path+0x108>
 80043ea:	f044 0403 	orr.w	r4, r4, #3
 80043ee:	d8c6      	bhi.n	800437e <follow_path+0x96>
 80043f0:	00ad      	lsls	r5, r5, #2
 80043f2:	b2ed      	uxtb	r5, r5
 80043f4:	4632      	mov	r2, r6
 80043f6:	f04f 080b 	mov.w	r8, #11
 80043fa:	f04f 0908 	mov.w	r9, #8
 80043fe:	e094      	b.n	800452a <follow_path+0x242>
 8004400:	287f      	cmp	r0, #127	; 0x7f
 8004402:	d90c      	bls.n	800441e <follow_path+0x136>
 8004404:	2100      	movs	r1, #0
 8004406:	9201      	str	r2, [sp, #4]
 8004408:	f000 fb50 	bl	8004aac <ff_convert>
 800440c:	f044 0402 	orr.w	r4, r4, #2
 8004410:	9a01      	ldr	r2, [sp, #4]
 8004412:	b160      	cbz	r0, 800442e <follow_path+0x146>
 8004414:	4b4e      	ldr	r3, [pc, #312]	; (8004550 <follow_path+0x268>)
 8004416:	4418      	add	r0, r3
 8004418:	f810 0c80 	ldrb.w	r0, [r0, #-128]
 800441c:	b138      	cbz	r0, 800442e <follow_path+0x146>
 800441e:	4b4d      	ldr	r3, [pc, #308]	; (8004554 <follow_path+0x26c>)
 8004420:	f813 1f01 	ldrb.w	r1, [r3, #1]!
 8004424:	2900      	cmp	r1, #0
 8004426:	f000 8084 	beq.w	8004532 <follow_path+0x24a>
 800442a:	4281      	cmp	r1, r0
 800442c:	d1f8      	bne.n	8004420 <follow_path+0x138>
 800442e:	f044 0403 	orr.w	r4, r4, #3
 8004432:	205f      	movs	r0, #95	; 0x5f
 8004434:	eb07 0109 	add.w	r1, r7, r9
 8004438:	f109 0901 	add.w	r9, r9, #1
 800443c:	f881 0024 	strb.w	r0, [r1, #36]	; 0x24
 8004440:	e073      	b.n	800452a <follow_path+0x242>
 8004442:	f045 0502 	orr.w	r5, r5, #2
 8004446:	e7f5      	b.n	8004434 <follow_path+0x14c>
 8004448:	075a      	lsls	r2, r3, #29
 800444a:	d4c9      	bmi.n	80043e0 <follow_path+0xf8>
 800444c:	79bb      	ldrb	r3, [r7, #6]
 800444e:	06db      	lsls	r3, r3, #27
 8004450:	d56d      	bpl.n	800452e <follow_path+0x246>
 8004452:	9b00      	ldr	r3, [sp, #0]
 8004454:	6978      	ldr	r0, [r7, #20]
 8004456:	899a      	ldrh	r2, [r3, #12]
 8004458:	f103 0138 	add.w	r1, r3, #56	; 0x38
 800445c:	fbb0 f3f2 	udiv	r3, r0, r2
 8004460:	fb02 0313 	mls	r3, r2, r3, r0
 8004464:	4419      	add	r1, r3
 8004466:	9b00      	ldr	r3, [sp, #0]
 8004468:	7818      	ldrb	r0, [r3, #0]
 800446a:	f7ff f8a2 	bl	80035b2 <ld_clust.isra.1>
 800446e:	60b8      	str	r0, [r7, #8]
 8004470:	683b      	ldr	r3, [r7, #0]
 8004472:	f8d3 b010 	ldr.w	fp, [r3, #16]
 8004476:	f10a 38ff 	add.w	r8, sl, #4294967295
 800447a:	f1ab 0502 	sub.w	r5, fp, #2
 800447e:	2600      	movs	r6, #0
 8004480:	f818 0f01 	ldrb.w	r0, [r8, #1]!
 8004484:	281f      	cmp	r0, #31
 8004486:	f106 0401 	add.w	r4, r6, #1
 800448a:	d90e      	bls.n	80044aa <follow_path+0x1c2>
 800448c:	282f      	cmp	r0, #47	; 0x2f
 800448e:	d002      	beq.n	8004496 <follow_path+0x1ae>
 8004490:	285c      	cmp	r0, #92	; 0x5c
 8004492:	f47f af45 	bne.w	8004320 <follow_path+0x38>
 8004496:	eb0a 0204 	add.w	r2, sl, r4
 800449a:	eba2 040a 	sub.w	r4, r2, sl
 800449e:	f812 1b01 	ldrb.w	r1, [r2], #1
 80044a2:	292f      	cmp	r1, #47	; 0x2f
 80044a4:	d0f9      	beq.n	800449a <follow_path+0x1b2>
 80044a6:	295c      	cmp	r1, #92	; 0x5c
 80044a8:	d0f7      	beq.n	800449a <follow_path+0x1b2>
 80044aa:	281f      	cmp	r0, #31
 80044ac:	44a2      	add	sl, r4
 80044ae:	eb0b 0246 	add.w	r2, fp, r6, lsl #1
 80044b2:	bf8c      	ite	hi
 80044b4:	2400      	movhi	r4, #0
 80044b6:	2404      	movls	r4, #4
 80044b8:	2e00      	cmp	r6, #0
 80044ba:	f47f af46 	bne.w	800434a <follow_path+0x62>
 80044be:	f04f 0800 	mov.w	r8, #0
 80044c2:	eb0b 0546 	add.w	r5, fp, r6, lsl #1
 80044c6:	f82b 8016 	strh.w	r8, [fp, r6, lsl #1]
 80044ca:	2e00      	cmp	r6, #0
 80044cc:	f43f af37 	beq.w	800433e <follow_path+0x56>
 80044d0:	2120      	movs	r1, #32
 80044d2:	220b      	movs	r2, #11
 80044d4:	f107 0024 	add.w	r0, r7, #36	; 0x24
 80044d8:	f7fe ff66 	bl	80033a8 <mem_set>
 80044dc:	4641      	mov	r1, r8
 80044de:	f83b 2011 	ldrh.w	r2, [fp, r1, lsl #1]
 80044e2:	2a20      	cmp	r2, #32
 80044e4:	f43f af3a 	beq.w	800435c <follow_path+0x74>
 80044e8:	2a2e      	cmp	r2, #46	; 0x2e
 80044ea:	f43f af37 	beq.w	800435c <follow_path+0x74>
 80044ee:	b109      	cbz	r1, 80044f4 <follow_path+0x20c>
 80044f0:	f044 0403 	orr.w	r4, r4, #3
 80044f4:	f835 2d02 	ldrh.w	r2, [r5, #-2]!
 80044f8:	2a2e      	cmp	r2, #46	; 0x2e
 80044fa:	d001      	beq.n	8004500 <follow_path+0x218>
 80044fc:	3e01      	subs	r6, #1
 80044fe:	d1f9      	bne.n	80044f4 <follow_path+0x20c>
 8004500:	f04f 0900 	mov.w	r9, #0
 8004504:	f04f 0808 	mov.w	r8, #8
 8004508:	464d      	mov	r5, r9
 800450a:	f83b 0011 	ldrh.w	r0, [fp, r1, lsl #1]
 800450e:	1c4a      	adds	r2, r1, #1
 8004510:	2800      	cmp	r0, #0
 8004512:	f43f af34 	beq.w	800437e <follow_path+0x96>
 8004516:	2820      	cmp	r0, #32
 8004518:	d005      	beq.n	8004526 <follow_path+0x23e>
 800451a:	282e      	cmp	r0, #46	; 0x2e
 800451c:	f47f af20 	bne.w	8004360 <follow_path+0x78>
 8004520:	42b2      	cmp	r2, r6
 8004522:	f43f af21 	beq.w	8004368 <follow_path+0x80>
 8004526:	f044 0403 	orr.w	r4, r4, #3
 800452a:	4611      	mov	r1, r2
 800452c:	e7ed      	b.n	800450a <follow_path+0x222>
 800452e:	2005      	movs	r0, #5
 8004530:	e756      	b.n	80043e0 <follow_path+0xf8>
 8004532:	f1a0 0141 	sub.w	r1, r0, #65	; 0x41
 8004536:	2919      	cmp	r1, #25
 8004538:	d983      	bls.n	8004442 <follow_path+0x15a>
 800453a:	f1a0 0161 	sub.w	r1, r0, #97	; 0x61
 800453e:	2919      	cmp	r1, #25
 8004540:	bf9e      	ittt	ls
 8004542:	3820      	subls	r0, #32
 8004544:	f045 0501 	orrls.w	r5, r5, #1
 8004548:	b280      	uxthls	r0, r0
 800454a:	e773      	b.n	8004434 <follow_path+0x14c>
 800454c:	08006738 	.word	0x08006738
 8004550:	080066ac 	.word	0x080066ac
 8004554:	08006741 	.word	0x08006741

08004558 <f_mount>:
 8004558:	b57f      	push	{r0, r1, r2, r3, r4, r5, r6, lr}
 800455a:	e9cd 1000 	strd	r1, r0, [sp]
 800455e:	a804      	add	r0, sp, #16
 8004560:	4616      	mov	r6, r2
 8004562:	f840 1d04 	str.w	r1, [r0, #-4]!
 8004566:	f7fe ffe9 	bl	800353c <get_ldnumber>
 800456a:	1e05      	subs	r5, r0, #0
 800456c:	db1f      	blt.n	80045ae <f_mount+0x56>
 800456e:	4912      	ldr	r1, [pc, #72]	; (80045b8 <f_mount+0x60>)
 8004570:	f851 4025 	ldr.w	r4, [r1, r5, lsl #2]
 8004574:	b15c      	cbz	r4, 800458e <f_mount+0x36>
 8004576:	4b11      	ldr	r3, [pc, #68]	; (80045bc <f_mount+0x64>)
 8004578:	681a      	ldr	r2, [r3, #0]
 800457a:	4294      	cmp	r4, r2
 800457c:	bf04      	itt	eq
 800457e:	2200      	moveq	r2, #0
 8004580:	601a      	streq	r2, [r3, #0]
 8004582:	691a      	ldr	r2, [r3, #16]
 8004584:	2000      	movs	r0, #0
 8004586:	4294      	cmp	r4, r2
 8004588:	bf08      	it	eq
 800458a:	6118      	streq	r0, [r3, #16]
 800458c:	7020      	strb	r0, [r4, #0]
 800458e:	9801      	ldr	r0, [sp, #4]
 8004590:	b108      	cbz	r0, 8004596 <f_mount+0x3e>
 8004592:	2300      	movs	r3, #0
 8004594:	7003      	strb	r3, [r0, #0]
 8004596:	f841 0025 	str.w	r0, [r1, r5, lsl #2]
 800459a:	b130      	cbz	r0, 80045aa <f_mount+0x52>
 800459c:	2e01      	cmp	r6, #1
 800459e:	d108      	bne.n	80045b2 <f_mount+0x5a>
 80045a0:	2200      	movs	r2, #0
 80045a2:	a901      	add	r1, sp, #4
 80045a4:	4668      	mov	r0, sp
 80045a6:	f7ff f8a3 	bl	80036f0 <find_volume>
 80045aa:	b004      	add	sp, #16
 80045ac:	bd70      	pop	{r4, r5, r6, pc}
 80045ae:	200b      	movs	r0, #11
 80045b0:	e7fb      	b.n	80045aa <f_mount+0x52>
 80045b2:	2000      	movs	r0, #0
 80045b4:	e7f9      	b.n	80045aa <f_mount+0x52>
 80045b6:	bf00      	nop
 80045b8:	200000c4 	.word	0x200000c4
 80045bc:	200000c8 	.word	0x200000c8

080045c0 <f_open>:
 80045c0:	e92d 47f0 	stmdb	sp!, {r4, r5, r6, r7, r8, r9, sl, lr}
 80045c4:	b090      	sub	sp, #64	; 0x40
 80045c6:	4690      	mov	r8, r2
 80045c8:	9101      	str	r1, [sp, #4]
 80045ca:	4604      	mov	r4, r0
 80045cc:	2800      	cmp	r0, #0
 80045ce:	f000 80b7 	beq.w	8004740 <f_open+0x180>
 80045d2:	f002 053f 	and.w	r5, r2, #63	; 0x3f
 80045d6:	462a      	mov	r2, r5
 80045d8:	a902      	add	r1, sp, #8
 80045da:	a801      	add	r0, sp, #4
 80045dc:	f7ff f888 	bl	80036f0 <find_volume>
 80045e0:	4607      	mov	r7, r0
 80045e2:	2800      	cmp	r0, #0
 80045e4:	d165      	bne.n	80046b2 <f_open+0xf2>
 80045e6:	ae10      	add	r6, sp, #64	; 0x40
 80045e8:	9b02      	ldr	r3, [sp, #8]
 80045ea:	f846 3d34 	str.w	r3, [r6, #-52]!
 80045ee:	9901      	ldr	r1, [sp, #4]
 80045f0:	4630      	mov	r0, r6
 80045f2:	f7ff fe79 	bl	80042e8 <follow_path>
 80045f6:	b958      	cbnz	r0, 8004610 <f_open+0x50>
 80045f8:	f99d 303b 	ldrsb.w	r3, [sp, #59]	; 0x3b
 80045fc:	2b00      	cmp	r3, #0
 80045fe:	db5f      	blt.n	80046c0 <f_open+0x100>
 8004600:	f015 0f3e 	tst.w	r5, #62	; 0x3e
 8004604:	bf14      	ite	ne
 8004606:	2101      	movne	r1, #1
 8004608:	2100      	moveq	r1, #0
 800460a:	4630      	mov	r0, r6
 800460c:	f7fe fed2 	bl	80033b4 <chk_lock>
 8004610:	f018 0f1c 	tst.w	r8, #28
 8004614:	d060      	beq.n	80046d8 <f_open+0x118>
 8004616:	2800      	cmp	r0, #0
 8004618:	d054      	beq.n	80046c4 <f_open+0x104>
 800461a:	2804      	cmp	r0, #4
 800461c:	d149      	bne.n	80046b2 <f_open+0xf2>
 800461e:	4b70      	ldr	r3, [pc, #448]	; (80047e0 <f_open+0x220>)
 8004620:	681a      	ldr	r2, [r3, #0]
 8004622:	b11a      	cbz	r2, 800462c <f_open+0x6c>
 8004624:	691b      	ldr	r3, [r3, #16]
 8004626:	2b00      	cmp	r3, #0
 8004628:	f040 8084 	bne.w	8004734 <f_open+0x174>
 800462c:	4630      	mov	r0, r6
 800462e:	f7ff fd25 	bl	800407c <dir_register>
 8004632:	2800      	cmp	r0, #0
 8004634:	d13d      	bne.n	80046b2 <f_open+0xf2>
 8004636:	f045 0508 	orr.w	r5, r5, #8
 800463a:	0728      	lsls	r0, r5, #28
 800463c:	d557      	bpl.n	80046ee <f_open+0x12e>
 800463e:	f7fe fe43 	bl	80032c8 <get_fattime>
 8004642:	4602      	mov	r2, r0
 8004644:	4601      	mov	r1, r0
 8004646:	980b      	ldr	r0, [sp, #44]	; 0x2c
 8004648:	300e      	adds	r0, #14
 800464a:	f7fe fea5 	bl	8003398 <st_dword>
 800464e:	980b      	ldr	r0, [sp, #44]	; 0x2c
 8004650:	4611      	mov	r1, r2
 8004652:	3016      	adds	r0, #22
 8004654:	f7fe fea0 	bl	8003398 <st_dword>
 8004658:	9b0b      	ldr	r3, [sp, #44]	; 0x2c
 800465a:	f8dd 9008 	ldr.w	r9, [sp, #8]
 800465e:	2220      	movs	r2, #32
 8004660:	72da      	strb	r2, [r3, #11]
 8004662:	f8dd a02c 	ldr.w	sl, [sp, #44]	; 0x2c
 8004666:	f899 0000 	ldrb.w	r0, [r9]
 800466a:	4651      	mov	r1, sl
 800466c:	f7fe ffa1 	bl	80035b2 <ld_clust.isra.1>
 8004670:	2200      	movs	r2, #0
 8004672:	4680      	mov	r8, r0
 8004674:	4648      	mov	r0, r9
 8004676:	f7fe ffaa 	bl	80035ce <st_clust.isra.2>
 800467a:	9b0b      	ldr	r3, [sp, #44]	; 0x2c
 800467c:	2200      	movs	r2, #0
 800467e:	771a      	strb	r2, [r3, #28]
 8004680:	775a      	strb	r2, [r3, #29]
 8004682:	779a      	strb	r2, [r3, #30]
 8004684:	77da      	strb	r2, [r3, #31]
 8004686:	9b02      	ldr	r3, [sp, #8]
 8004688:	2101      	movs	r1, #1
 800468a:	70d9      	strb	r1, [r3, #3]
 800468c:	f1b8 0f00 	cmp.w	r8, #0
 8004690:	d02d      	beq.n	80046ee <f_open+0x12e>
 8004692:	4641      	mov	r1, r8
 8004694:	4630      	mov	r0, r6
 8004696:	f8d3 9034 	ldr.w	r9, [r3, #52]	; 0x34
 800469a:	f7ff fb40 	bl	8003d1e <remove_chain>
 800469e:	b940      	cbnz	r0, 80046b2 <f_open+0xf2>
 80046a0:	4649      	mov	r1, r9
 80046a2:	9802      	ldr	r0, [sp, #8]
 80046a4:	f7fe ffc8 	bl	8003638 <move_window>
 80046a8:	9a02      	ldr	r2, [sp, #8]
 80046aa:	f108 33ff 	add.w	r3, r8, #4294967295
 80046ae:	6153      	str	r3, [r2, #20]
 80046b0:	b1e8      	cbz	r0, 80046ee <f_open+0x12e>
 80046b2:	2300      	movs	r3, #0
 80046b4:	6023      	str	r3, [r4, #0]
 80046b6:	4607      	mov	r7, r0
 80046b8:	4638      	mov	r0, r7
 80046ba:	b010      	add	sp, #64	; 0x40
 80046bc:	e8bd 87f0 	ldmia.w	sp!, {r4, r5, r6, r7, r8, r9, sl, pc}
 80046c0:	2006      	movs	r0, #6
 80046c2:	e7a5      	b.n	8004610 <f_open+0x50>
 80046c4:	f89d 3012 	ldrb.w	r3, [sp, #18]
 80046c8:	f013 0f11 	tst.w	r3, #17
 80046cc:	d136      	bne.n	800473c <f_open+0x17c>
 80046ce:	f018 0f04 	tst.w	r8, #4
 80046d2:	d0b2      	beq.n	800463a <f_open+0x7a>
 80046d4:	2008      	movs	r0, #8
 80046d6:	e7ec      	b.n	80046b2 <f_open+0xf2>
 80046d8:	2800      	cmp	r0, #0
 80046da:	d1ea      	bne.n	80046b2 <f_open+0xf2>
 80046dc:	f89d 3012 	ldrb.w	r3, [sp, #18]
 80046e0:	06da      	lsls	r2, r3, #27
 80046e2:	d429      	bmi.n	8004738 <f_open+0x178>
 80046e4:	f018 0f02 	tst.w	r8, #2
 80046e8:	d001      	beq.n	80046ee <f_open+0x12e>
 80046ea:	07db      	lsls	r3, r3, #31
 80046ec:	d426      	bmi.n	800473c <f_open+0x17c>
 80046ee:	9b02      	ldr	r3, [sp, #8]
 80046f0:	0728      	lsls	r0, r5, #28
 80046f2:	6b5b      	ldr	r3, [r3, #52]	; 0x34
 80046f4:	6263      	str	r3, [r4, #36]	; 0x24
 80046f6:	bf48      	it	mi
 80046f8:	f045 0540 	orrmi.w	r5, r5, #64	; 0x40
 80046fc:	f015 0ffe 	tst.w	r5, #254	; 0xfe
 8004700:	9b0b      	ldr	r3, [sp, #44]	; 0x2c
 8004702:	62a3      	str	r3, [r4, #40]	; 0x28
 8004704:	bf14      	ite	ne
 8004706:	2101      	movne	r1, #1
 8004708:	2100      	moveq	r1, #0
 800470a:	4630      	mov	r0, r6
 800470c:	f7fe fe8c 	bl	8003428 <inc_lock>
 8004710:	6120      	str	r0, [r4, #16]
 8004712:	b9b8      	cbnz	r0, 8004744 <f_open+0x184>
 8004714:	2002      	movs	r0, #2
 8004716:	e7cc      	b.n	80046b2 <f_open+0xf2>
 8004718:	6820      	ldr	r0, [r4, #0]
 800471a:	f7ff f9f3 	bl	8003b04 <get_fat.isra.7>
 800471e:	2801      	cmp	r0, #1
 8004720:	4601      	mov	r1, r0
 8004722:	eba5 0508 	sub.w	r5, r5, r8
 8004726:	d903      	bls.n	8004730 <f_open+0x170>
 8004728:	1c42      	adds	r2, r0, #1
 800472a:	d135      	bne.n	8004798 <f_open+0x1d8>
 800472c:	2001      	movs	r0, #1
 800472e:	e036      	b.n	800479e <f_open+0x1de>
 8004730:	2002      	movs	r0, #2
 8004732:	e034      	b.n	800479e <f_open+0x1de>
 8004734:	2012      	movs	r0, #18
 8004736:	e7bc      	b.n	80046b2 <f_open+0xf2>
 8004738:	2004      	movs	r0, #4
 800473a:	e7ba      	b.n	80046b2 <f_open+0xf2>
 800473c:	2007      	movs	r0, #7
 800473e:	e7b8      	b.n	80046b2 <f_open+0xf2>
 8004740:	2709      	movs	r7, #9
 8004742:	e7b9      	b.n	80046b8 <f_open+0xf8>
 8004744:	9e02      	ldr	r6, [sp, #8]
 8004746:	f8dd 802c 	ldr.w	r8, [sp, #44]	; 0x2c
 800474a:	7830      	ldrb	r0, [r6, #0]
 800474c:	4641      	mov	r1, r8
 800474e:	f7fe ff30 	bl	80035b2 <ld_clust.isra.1>
 8004752:	60a0      	str	r0, [r4, #8]
 8004754:	f108 001c 	add.w	r0, r8, #28
 8004758:	f7fe fe16 	bl	8003388 <ld_dword>
 800475c:	88f3      	ldrh	r3, [r6, #6]
 800475e:	6026      	str	r6, [r4, #0]
 8004760:	2100      	movs	r1, #0
 8004762:	f104 0630 	add.w	r6, r4, #48	; 0x30
 8004766:	60e0      	str	r0, [r4, #12]
 8004768:	80a3      	strh	r3, [r4, #4]
 800476a:	62e1      	str	r1, [r4, #44]	; 0x2c
 800476c:	7525      	strb	r5, [r4, #20]
 800476e:	7561      	strb	r1, [r4, #21]
 8004770:	6221      	str	r1, [r4, #32]
 8004772:	61a1      	str	r1, [r4, #24]
 8004774:	f44f 5280 	mov.w	r2, #4096	; 0x1000
 8004778:	4630      	mov	r0, r6
 800477a:	f7fe fe15 	bl	80033a8 <mem_set>
 800477e:	06ab      	lsls	r3, r5, #26
 8004780:	d59a      	bpl.n	80046b8 <f_open+0xf8>
 8004782:	68e5      	ldr	r5, [r4, #12]
 8004784:	2d00      	cmp	r5, #0
 8004786:	d097      	beq.n	80046b8 <f_open+0xf8>
 8004788:	9b02      	ldr	r3, [sp, #8]
 800478a:	68a1      	ldr	r1, [r4, #8]
 800478c:	895a      	ldrh	r2, [r3, #10]
 800478e:	f8b3 800c 	ldrh.w	r8, [r3, #12]
 8004792:	61a5      	str	r5, [r4, #24]
 8004794:	fb08 f802 	mul.w	r8, r8, r2
 8004798:	45a8      	cmp	r8, r5
 800479a:	d3bd      	bcc.n	8004718 <f_open+0x158>
 800479c:	2000      	movs	r0, #0
 800479e:	61e1      	str	r1, [r4, #28]
 80047a0:	2800      	cmp	r0, #0
 80047a2:	d186      	bne.n	80046b2 <f_open+0xf2>
 80047a4:	f8dd 8008 	ldr.w	r8, [sp, #8]
 80047a8:	f8b8 300c 	ldrh.w	r3, [r8, #12]
 80047ac:	fbb5 f2f3 	udiv	r2, r5, r3
 80047b0:	fb03 5512 	mls	r5, r3, r2, r5
 80047b4:	2d00      	cmp	r5, #0
 80047b6:	f43f af7f 	beq.w	80046b8 <f_open+0xf8>
 80047ba:	4640      	mov	r0, r8
 80047bc:	f7fe fe90 	bl	80034e0 <clust2sect>
 80047c0:	2800      	cmp	r0, #0
 80047c2:	d0a7      	beq.n	8004714 <f_open+0x154>
 80047c4:	4402      	add	r2, r0
 80047c6:	6222      	str	r2, [r4, #32]
 80047c8:	2301      	movs	r3, #1
 80047ca:	4631      	mov	r1, r6
 80047cc:	f898 0001 	ldrb.w	r0, [r8, #1]
 80047d0:	f7fe fdb0 	bl	8003334 <disk_read>
 80047d4:	2800      	cmp	r0, #0
 80047d6:	f43f af6f 	beq.w	80046b8 <f_open+0xf8>
 80047da:	2001      	movs	r0, #1
 80047dc:	e769      	b.n	80046b2 <f_open+0xf2>
 80047de:	bf00      	nop
 80047e0:	200000c8 	.word	0x200000c8

080047e4 <f_read>:
 80047e4:	e92d 4ff0 	stmdb	sp!, {r4, r5, r6, r7, r8, r9, sl, fp, lr}
 80047e8:	469b      	mov	fp, r3
 80047ea:	b085      	sub	sp, #20
 80047ec:	2300      	movs	r3, #0
 80047ee:	4689      	mov	r9, r1
 80047f0:	f8cb 3000 	str.w	r3, [fp]
 80047f4:	a903      	add	r1, sp, #12
 80047f6:	4604      	mov	r4, r0
 80047f8:	4617      	mov	r7, r2
 80047fa:	f7fe feb7 	bl	800356c <validate>
 80047fe:	4605      	mov	r5, r0
 8004800:	bb18      	cbnz	r0, 800484a <f_read+0x66>
 8004802:	7d65      	ldrb	r5, [r4, #21]
 8004804:	bb0d      	cbnz	r5, 800484a <f_read+0x66>
 8004806:	7d23      	ldrb	r3, [r4, #20]
 8004808:	07da      	lsls	r2, r3, #31
 800480a:	f140 80a8 	bpl.w	800495e <f_read+0x17a>
 800480e:	68e3      	ldr	r3, [r4, #12]
 8004810:	69a6      	ldr	r6, [r4, #24]
 8004812:	1b9e      	subs	r6, r3, r6
 8004814:	42be      	cmp	r6, r7
 8004816:	f104 0330 	add.w	r3, r4, #48	; 0x30
 800481a:	bf28      	it	cs
 800481c:	463e      	movcs	r6, r7
 800481e:	9300      	str	r3, [sp, #0]
 8004820:	b19e      	cbz	r6, 800484a <f_read+0x66>
 8004822:	9803      	ldr	r0, [sp, #12]
 8004824:	69a1      	ldr	r1, [r4, #24]
 8004826:	8983      	ldrh	r3, [r0, #12]
 8004828:	fbb1 f2f3 	udiv	r2, r1, r3
 800482c:	fb03 1312 	mls	r3, r3, r2, r1
 8004830:	2b00      	cmp	r3, #0
 8004832:	d17d      	bne.n	8004930 <f_read+0x14c>
 8004834:	8943      	ldrh	r3, [r0, #10]
 8004836:	3b01      	subs	r3, #1
 8004838:	4013      	ands	r3, r2
 800483a:	9301      	str	r3, [sp, #4]
 800483c:	d119      	bne.n	8004872 <f_read+0x8e>
 800483e:	b941      	cbnz	r1, 8004852 <f_read+0x6e>
 8004840:	68a0      	ldr	r0, [r4, #8]
 8004842:	2801      	cmp	r0, #1
 8004844:	d810      	bhi.n	8004868 <f_read+0x84>
 8004846:	2502      	movs	r5, #2
 8004848:	7565      	strb	r5, [r4, #21]
 800484a:	4628      	mov	r0, r5
 800484c:	b005      	add	sp, #20
 800484e:	e8bd 8ff0 	ldmia.w	sp!, {r4, r5, r6, r7, r8, r9, sl, fp, pc}
 8004852:	6ae3      	ldr	r3, [r4, #44]	; 0x2c
 8004854:	b11b      	cbz	r3, 800485e <f_read+0x7a>
 8004856:	4620      	mov	r0, r4
 8004858:	f7fe fe4d 	bl	80034f6 <clmt_clust>
 800485c:	e7f1      	b.n	8004842 <f_read+0x5e>
 800485e:	69e1      	ldr	r1, [r4, #28]
 8004860:	6820      	ldr	r0, [r4, #0]
 8004862:	f7ff f94f 	bl	8003b04 <get_fat.isra.7>
 8004866:	e7ec      	b.n	8004842 <f_read+0x5e>
 8004868:	1c43      	adds	r3, r0, #1
 800486a:	d101      	bne.n	8004870 <f_read+0x8c>
 800486c:	2501      	movs	r5, #1
 800486e:	e7eb      	b.n	8004848 <f_read+0x64>
 8004870:	61e0      	str	r0, [r4, #28]
 8004872:	f8dd a00c 	ldr.w	sl, [sp, #12]
 8004876:	69e1      	ldr	r1, [r4, #28]
 8004878:	4650      	mov	r0, sl
 800487a:	f7fe fe31 	bl	80034e0 <clust2sect>
 800487e:	2800      	cmp	r0, #0
 8004880:	d0e1      	beq.n	8004846 <f_read+0x62>
 8004882:	9b01      	ldr	r3, [sp, #4]
 8004884:	f8ba 800c 	ldrh.w	r8, [sl, #12]
 8004888:	fbb6 f8f8 	udiv	r8, r6, r8
 800488c:	181f      	adds	r7, r3, r0
 800488e:	f1b8 0f00 	cmp.w	r8, #0
 8004892:	d030      	beq.n	80048f6 <f_read+0x112>
 8004894:	9a01      	ldr	r2, [sp, #4]
 8004896:	f8ba 300a 	ldrh.w	r3, [sl, #10]
 800489a:	f89a 0001 	ldrb.w	r0, [sl, #1]
 800489e:	4442      	add	r2, r8
 80048a0:	429a      	cmp	r2, r3
 80048a2:	bf84      	itt	hi
 80048a4:	9a01      	ldrhi	r2, [sp, #4]
 80048a6:	eba3 0802 	subhi.w	r8, r3, r2
 80048aa:	4643      	mov	r3, r8
 80048ac:	463a      	mov	r2, r7
 80048ae:	4649      	mov	r1, r9
 80048b0:	f7fe fd40 	bl	8003334 <disk_read>
 80048b4:	2800      	cmp	r0, #0
 80048b6:	d1d9      	bne.n	800486c <f_read+0x88>
 80048b8:	f994 3014 	ldrsb.w	r3, [r4, #20]
 80048bc:	2b00      	cmp	r3, #0
 80048be:	da0b      	bge.n	80048d8 <f_read+0xf4>
 80048c0:	6a20      	ldr	r0, [r4, #32]
 80048c2:	1bc0      	subs	r0, r0, r7
 80048c4:	4540      	cmp	r0, r8
 80048c6:	d207      	bcs.n	80048d8 <f_read+0xf4>
 80048c8:	9b03      	ldr	r3, [sp, #12]
 80048ca:	899a      	ldrh	r2, [r3, #12]
 80048cc:	b122      	cbz	r2, 80048d8 <f_read+0xf4>
 80048ce:	9900      	ldr	r1, [sp, #0]
 80048d0:	fb02 9000 	mla	r0, r2, r0, r9
 80048d4:	f7fe fe64 	bl	80035a0 <mem_cpy.part.0>
 80048d8:	9b03      	ldr	r3, [sp, #12]
 80048da:	899f      	ldrh	r7, [r3, #12]
 80048dc:	fb08 f707 	mul.w	r7, r8, r7
 80048e0:	69a3      	ldr	r3, [r4, #24]
 80048e2:	443b      	add	r3, r7
 80048e4:	61a3      	str	r3, [r4, #24]
 80048e6:	f8db 3000 	ldr.w	r3, [fp]
 80048ea:	443b      	add	r3, r7
 80048ec:	44b9      	add	r9, r7
 80048ee:	f8cb 3000 	str.w	r3, [fp]
 80048f2:	1bf6      	subs	r6, r6, r7
 80048f4:	e794      	b.n	8004820 <f_read+0x3c>
 80048f6:	6a22      	ldr	r2, [r4, #32]
 80048f8:	42ba      	cmp	r2, r7
 80048fa:	d018      	beq.n	800492e <f_read+0x14a>
 80048fc:	f994 3014 	ldrsb.w	r3, [r4, #20]
 8004900:	2b00      	cmp	r3, #0
 8004902:	da0b      	bge.n	800491c <f_read+0x138>
 8004904:	2301      	movs	r3, #1
 8004906:	9900      	ldr	r1, [sp, #0]
 8004908:	f89a 0001 	ldrb.w	r0, [sl, #1]
 800490c:	f7fe fd20 	bl	8003350 <disk_write>
 8004910:	2800      	cmp	r0, #0
 8004912:	d1ab      	bne.n	800486c <f_read+0x88>
 8004914:	7d23      	ldrb	r3, [r4, #20]
 8004916:	f003 037f 	and.w	r3, r3, #127	; 0x7f
 800491a:	7523      	strb	r3, [r4, #20]
 800491c:	9803      	ldr	r0, [sp, #12]
 800491e:	9900      	ldr	r1, [sp, #0]
 8004920:	7840      	ldrb	r0, [r0, #1]
 8004922:	2301      	movs	r3, #1
 8004924:	463a      	mov	r2, r7
 8004926:	f7fe fd05 	bl	8003334 <disk_read>
 800492a:	2800      	cmp	r0, #0
 800492c:	d19e      	bne.n	800486c <f_read+0x88>
 800492e:	6227      	str	r7, [r4, #32]
 8004930:	9b03      	ldr	r3, [sp, #12]
 8004932:	f8b3 800c 	ldrh.w	r8, [r3, #12]
 8004936:	69a3      	ldr	r3, [r4, #24]
 8004938:	fbb3 f1f8 	udiv	r1, r3, r8
 800493c:	fb08 3111 	mls	r1, r8, r1, r3
 8004940:	eba8 0801 	sub.w	r8, r8, r1
 8004944:	45b0      	cmp	r8, r6
 8004946:	4647      	mov	r7, r8
 8004948:	bf28      	it	cs
 800494a:	4637      	movcs	r7, r6
 800494c:	2f00      	cmp	r7, #0
 800494e:	d0c7      	beq.n	80048e0 <f_read+0xfc>
 8004950:	9b00      	ldr	r3, [sp, #0]
 8004952:	463a      	mov	r2, r7
 8004954:	4419      	add	r1, r3
 8004956:	4648      	mov	r0, r9
 8004958:	f7fe fe22 	bl	80035a0 <mem_cpy.part.0>
 800495c:	e7c0      	b.n	80048e0 <f_read+0xfc>
 800495e:	2507      	movs	r5, #7
 8004960:	e773      	b.n	800484a <f_read+0x66>

08004962 <f_sync>:
 8004962:	b5f7      	push	{r0, r1, r2, r4, r5, r6, r7, lr}
 8004964:	a901      	add	r1, sp, #4
 8004966:	4604      	mov	r4, r0
 8004968:	f7fe fe00 	bl	800356c <validate>
 800496c:	4605      	mov	r5, r0
 800496e:	2800      	cmp	r0, #0
 8004970:	d13a      	bne.n	80049e8 <f_sync+0x86>
 8004972:	7d23      	ldrb	r3, [r4, #20]
 8004974:	065a      	lsls	r2, r3, #25
 8004976:	d537      	bpl.n	80049e8 <f_sync+0x86>
 8004978:	061b      	lsls	r3, r3, #24
 800497a:	d50c      	bpl.n	8004996 <f_sync+0x34>
 800497c:	9801      	ldr	r0, [sp, #4]
 800497e:	6a22      	ldr	r2, [r4, #32]
 8004980:	7840      	ldrb	r0, [r0, #1]
 8004982:	2301      	movs	r3, #1
 8004984:	f104 0130 	add.w	r1, r4, #48	; 0x30
 8004988:	f7fe fce2 	bl	8003350 <disk_write>
 800498c:	bb78      	cbnz	r0, 80049ee <f_sync+0x8c>
 800498e:	7d23      	ldrb	r3, [r4, #20]
 8004990:	f003 037f 	and.w	r3, r3, #127	; 0x7f
 8004994:	7523      	strb	r3, [r4, #20]
 8004996:	f7fe fc97 	bl	80032c8 <get_fattime>
 800499a:	6a61      	ldr	r1, [r4, #36]	; 0x24
 800499c:	4607      	mov	r7, r0
 800499e:	9801      	ldr	r0, [sp, #4]
 80049a0:	f7fe fe4a 	bl	8003638 <move_window>
 80049a4:	4605      	mov	r5, r0
 80049a6:	b9f8      	cbnz	r0, 80049e8 <f_sync+0x86>
 80049a8:	6aa6      	ldr	r6, [r4, #40]	; 0x28
 80049aa:	7af3      	ldrb	r3, [r6, #11]
 80049ac:	f043 0320 	orr.w	r3, r3, #32
 80049b0:	72f3      	strb	r3, [r6, #11]
 80049b2:	68a2      	ldr	r2, [r4, #8]
 80049b4:	6820      	ldr	r0, [r4, #0]
 80049b6:	4631      	mov	r1, r6
 80049b8:	f7fe fe09 	bl	80035ce <st_clust.isra.2>
 80049bc:	68e1      	ldr	r1, [r4, #12]
 80049be:	f106 001c 	add.w	r0, r6, #28
 80049c2:	f7fe fce9 	bl	8003398 <st_dword>
 80049c6:	4639      	mov	r1, r7
 80049c8:	f106 0016 	add.w	r0, r6, #22
 80049cc:	f7fe fce4 	bl	8003398 <st_dword>
 80049d0:	9801      	ldr	r0, [sp, #4]
 80049d2:	74b5      	strb	r5, [r6, #18]
 80049d4:	2301      	movs	r3, #1
 80049d6:	74f5      	strb	r5, [r6, #19]
 80049d8:	70c3      	strb	r3, [r0, #3]
 80049da:	f7ff f9d7 	bl	8003d8c <sync_fs>
 80049de:	7d23      	ldrb	r3, [r4, #20]
 80049e0:	f023 0340 	bic.w	r3, r3, #64	; 0x40
 80049e4:	4605      	mov	r5, r0
 80049e6:	7523      	strb	r3, [r4, #20]
 80049e8:	4628      	mov	r0, r5
 80049ea:	b003      	add	sp, #12
 80049ec:	bdf0      	pop	{r4, r5, r6, r7, pc}
 80049ee:	2501      	movs	r5, #1
 80049f0:	e7fa      	b.n	80049e8 <f_sync+0x86>

080049f2 <f_close>:
 80049f2:	b513      	push	{r0, r1, r4, lr}
 80049f4:	4604      	mov	r4, r0
 80049f6:	f7ff ffb4 	bl	8004962 <f_sync>
 80049fa:	b948      	cbnz	r0, 8004a10 <f_close+0x1e>
 80049fc:	a901      	add	r1, sp, #4
 80049fe:	4620      	mov	r0, r4
 8004a00:	f7fe fdb4 	bl	800356c <validate>
 8004a04:	b920      	cbnz	r0, 8004a10 <f_close+0x1e>
 8004a06:	6920      	ldr	r0, [r4, #16]
 8004a08:	f7fe fd4e 	bl	80034a8 <dec_lock>
 8004a0c:	b900      	cbnz	r0, 8004a10 <f_close+0x1e>
 8004a0e:	6020      	str	r0, [r4, #0]
 8004a10:	b002      	add	sp, #8
 8004a12:	bd10      	pop	{r4, pc}

08004a14 <f_gets>:
 8004a14:	e92d 41f3 	stmdb	sp!, {r0, r1, r4, r5, r6, r7, r8, lr}
 8004a18:	4606      	mov	r6, r0
 8004a1a:	4690      	mov	r8, r2
 8004a1c:	4605      	mov	r5, r0
 8004a1e:	2400      	movs	r4, #0
 8004a20:	1e4f      	subs	r7, r1, #1
 8004a22:	42bc      	cmp	r4, r7
 8004a24:	da12      	bge.n	8004a4c <f_gets+0x38>
 8004a26:	ab01      	add	r3, sp, #4
 8004a28:	2201      	movs	r2, #1
 8004a2a:	4669      	mov	r1, sp
 8004a2c:	4640      	mov	r0, r8
 8004a2e:	f7ff fed9 	bl	80047e4 <f_read>
 8004a32:	9b01      	ldr	r3, [sp, #4]
 8004a34:	2b01      	cmp	r3, #1
 8004a36:	d109      	bne.n	8004a4c <f_gets+0x38>
 8004a38:	f89d 3000 	ldrb.w	r3, [sp]
 8004a3c:	2b0d      	cmp	r3, #13
 8004a3e:	d0f0      	beq.n	8004a22 <f_gets+0xe>
 8004a40:	2b0a      	cmp	r3, #10
 8004a42:	f805 3b01 	strb.w	r3, [r5], #1
 8004a46:	f104 0401 	add.w	r4, r4, #1
 8004a4a:	d1ea      	bne.n	8004a22 <f_gets+0xe>
 8004a4c:	2300      	movs	r3, #0
 8004a4e:	429c      	cmp	r4, r3
 8004a50:	bf14      	ite	ne
 8004a52:	4630      	movne	r0, r6
 8004a54:	4618      	moveq	r0, r3
 8004a56:	702b      	strb	r3, [r5, #0]
 8004a58:	b002      	add	sp, #8
 8004a5a:	e8bd 81f0 	ldmia.w	sp!, {r4, r5, r6, r7, r8, pc}
	...

08004a60 <FATFS_LinkDriverEx>:
 8004a60:	b530      	push	{r4, r5, lr}
 8004a62:	4b0f      	ldr	r3, [pc, #60]	; (8004aa0 <FATFS_LinkDriverEx+0x40>)
 8004a64:	7a5d      	ldrb	r5, [r3, #9]
 8004a66:	f005 04ff 	and.w	r4, r5, #255	; 0xff
 8004a6a:	b9b5      	cbnz	r5, 8004a9a <FATFS_LinkDriverEx+0x3a>
 8004a6c:	7a5d      	ldrb	r5, [r3, #9]
 8004a6e:	555c      	strb	r4, [r3, r5]
 8004a70:	7a5d      	ldrb	r5, [r3, #9]
 8004a72:	eb03 0585 	add.w	r5, r3, r5, lsl #2
 8004a76:	6068      	str	r0, [r5, #4]
 8004a78:	7a58      	ldrb	r0, [r3, #9]
 8004a7a:	4418      	add	r0, r3
 8004a7c:	7202      	strb	r2, [r0, #8]
 8004a7e:	7a5a      	ldrb	r2, [r3, #9]
 8004a80:	b2d2      	uxtb	r2, r2
 8004a82:	1c50      	adds	r0, r2, #1
 8004a84:	b2c0      	uxtb	r0, r0
 8004a86:	7258      	strb	r0, [r3, #9]
 8004a88:	233a      	movs	r3, #58	; 0x3a
 8004a8a:	3230      	adds	r2, #48	; 0x30
 8004a8c:	704b      	strb	r3, [r1, #1]
 8004a8e:	232f      	movs	r3, #47	; 0x2f
 8004a90:	700a      	strb	r2, [r1, #0]
 8004a92:	708b      	strb	r3, [r1, #2]
 8004a94:	70cc      	strb	r4, [r1, #3]
 8004a96:	4620      	mov	r0, r4
 8004a98:	bd30      	pop	{r4, r5, pc}
 8004a9a:	2001      	movs	r0, #1
 8004a9c:	e7fc      	b.n	8004a98 <FATFS_LinkDriverEx+0x38>
 8004a9e:	bf00      	nop
 8004aa0:	200002ec 	.word	0x200002ec

08004aa4 <FATFS_LinkDriver>:
 8004aa4:	2200      	movs	r2, #0
 8004aa6:	f7ff bfdb 	b.w	8004a60 <FATFS_LinkDriverEx>
	...

08004aac <ff_convert>:
 8004aac:	287f      	cmp	r0, #127	; 0x7f
 8004aae:	b510      	push	{r4, lr}
 8004ab0:	d906      	bls.n	8004ac0 <ff_convert+0x14>
 8004ab2:	b131      	cbz	r1, 8004ac2 <ff_convert+0x16>
 8004ab4:	28ff      	cmp	r0, #255	; 0xff
 8004ab6:	d812      	bhi.n	8004ade <ff_convert+0x32>
 8004ab8:	3880      	subs	r0, #128	; 0x80
 8004aba:	4b0a      	ldr	r3, [pc, #40]	; (8004ae4 <ff_convert+0x38>)
 8004abc:	f833 0010 	ldrh.w	r0, [r3, r0, lsl #1]
 8004ac0:	bd10      	pop	{r4, pc}
 8004ac2:	4a08      	ldr	r2, [pc, #32]	; (8004ae4 <ff_convert+0x38>)
 8004ac4:	f832 4011 	ldrh.w	r4, [r2, r1, lsl #1]
 8004ac8:	4284      	cmp	r4, r0
 8004aca:	b28b      	uxth	r3, r1
 8004acc:	d003      	beq.n	8004ad6 <ff_convert+0x2a>
 8004ace:	3101      	adds	r1, #1
 8004ad0:	2980      	cmp	r1, #128	; 0x80
 8004ad2:	d1f7      	bne.n	8004ac4 <ff_convert+0x18>
 8004ad4:	460b      	mov	r3, r1
 8004ad6:	f103 0080 	add.w	r0, r3, #128	; 0x80
 8004ada:	b2c0      	uxtb	r0, r0
 8004adc:	e7f0      	b.n	8004ac0 <ff_convert+0x14>
 8004ade:	2000      	movs	r0, #0
 8004ae0:	e7ee      	b.n	8004ac0 <ff_convert+0x14>
 8004ae2:	bf00      	nop
 8004ae4:	0800674a 	.word	0x0800674a

08004ae8 <ff_wtoupper>:
 8004ae8:	b570      	push	{r4, r5, r6, lr}
 8004aea:	4b1e      	ldr	r3, [pc, #120]	; (8004b64 <ff_wtoupper+0x7c>)
 8004aec:	4a1e      	ldr	r2, [pc, #120]	; (8004b68 <ff_wtoupper+0x80>)
 8004aee:	f5b0 5f80 	cmp.w	r0, #4096	; 0x1000
 8004af2:	bf28      	it	cs
 8004af4:	4613      	movcs	r3, r2
 8004af6:	1d19      	adds	r1, r3, #4
 8004af8:	f831 3c04 	ldrh.w	r3, [r1, #-4]
 8004afc:	460a      	mov	r2, r1
 8004afe:	b1a3      	cbz	r3, 8004b2a <ff_wtoupper+0x42>
 8004b00:	4298      	cmp	r0, r3
 8004b02:	d312      	bcc.n	8004b2a <ff_wtoupper+0x42>
 8004b04:	f831 4c02 	ldrh.w	r4, [r1, #-2]
 8004b08:	0a25      	lsrs	r5, r4, #8
 8004b0a:	b2e4      	uxtb	r4, r4
 8004b0c:	18e6      	adds	r6, r4, r3
 8004b0e:	42b0      	cmp	r0, r6
 8004b10:	da21      	bge.n	8004b56 <ff_wtoupper+0x6e>
 8004b12:	2d08      	cmp	r5, #8
 8004b14:	d809      	bhi.n	8004b2a <ff_wtoupper+0x42>
 8004b16:	e8df f005 	tbb	[pc, r5]
 8004b1a:	0905      	.short	0x0905
 8004b1c:	1513110f 	.word	0x1513110f
 8004b20:	1917      	.short	0x1917
 8004b22:	1b          	.byte	0x1b
 8004b23:	00          	.byte	0x00
 8004b24:	1ac0      	subs	r0, r0, r3
 8004b26:	f831 0010 	ldrh.w	r0, [r1, r0, lsl #1]
 8004b2a:	bd70      	pop	{r4, r5, r6, pc}
 8004b2c:	1ac3      	subs	r3, r0, r3
 8004b2e:	f003 0301 	and.w	r3, r3, #1
 8004b32:	1ac0      	subs	r0, r0, r3
 8004b34:	b280      	uxth	r0, r0
 8004b36:	e7f8      	b.n	8004b2a <ff_wtoupper+0x42>
 8004b38:	3810      	subs	r0, #16
 8004b3a:	e7fb      	b.n	8004b34 <ff_wtoupper+0x4c>
 8004b3c:	3820      	subs	r0, #32
 8004b3e:	e7f9      	b.n	8004b34 <ff_wtoupper+0x4c>
 8004b40:	3830      	subs	r0, #48	; 0x30
 8004b42:	e7f7      	b.n	8004b34 <ff_wtoupper+0x4c>
 8004b44:	381a      	subs	r0, #26
 8004b46:	e7f5      	b.n	8004b34 <ff_wtoupper+0x4c>
 8004b48:	3008      	adds	r0, #8
 8004b4a:	e7f3      	b.n	8004b34 <ff_wtoupper+0x4c>
 8004b4c:	3850      	subs	r0, #80	; 0x50
 8004b4e:	e7f1      	b.n	8004b34 <ff_wtoupper+0x4c>
 8004b50:	f5a0 50e3 	sub.w	r0, r0, #7264	; 0x1c60
 8004b54:	e7ee      	b.n	8004b34 <ff_wtoupper+0x4c>
 8004b56:	3104      	adds	r1, #4
 8004b58:	2d00      	cmp	r5, #0
 8004b5a:	d1cd      	bne.n	8004af8 <ff_wtoupper+0x10>
 8004b5c:	eb02 0344 	add.w	r3, r2, r4, lsl #1
 8004b60:	e7c9      	b.n	8004af6 <ff_wtoupper+0xe>
 8004b62:	bf00      	nop
 8004b64:	0800684a 	.word	0x0800684a
 8004b68:	08006a3c 	.word	0x08006a3c

08004b6c <__errno>:
 8004b6c:	4b01      	ldr	r3, [pc, #4]	; (8004b74 <__errno+0x8>)
 8004b6e:	6818      	ldr	r0, [r3, #0]
 8004b70:	4770      	bx	lr
 8004b72:	bf00      	nop
 8004b74:	20000028 	.word	0x20000028

08004b78 <__libc_init_array>:
 8004b78:	b570      	push	{r4, r5, r6, lr}
 8004b7a:	4e0d      	ldr	r6, [pc, #52]	; (8004bb0 <__libc_init_array+0x38>)
 8004b7c:	4c0d      	ldr	r4, [pc, #52]	; (8004bb4 <__libc_init_array+0x3c>)
 8004b7e:	1ba4      	subs	r4, r4, r6
 8004b80:	10a4      	asrs	r4, r4, #2
 8004b82:	2500      	movs	r5, #0
 8004b84:	42a5      	cmp	r5, r4
 8004b86:	d109      	bne.n	8004b9c <__libc_init_array+0x24>
 8004b88:	4e0b      	ldr	r6, [pc, #44]	; (8004bb8 <__libc_init_array+0x40>)
 8004b8a:	4c0c      	ldr	r4, [pc, #48]	; (8004bbc <__libc_init_array+0x44>)
 8004b8c:	f001 f87e 	bl	8005c8c <_init>
 8004b90:	1ba4      	subs	r4, r4, r6
 8004b92:	10a4      	asrs	r4, r4, #2
 8004b94:	2500      	movs	r5, #0
 8004b96:	42a5      	cmp	r5, r4
 8004b98:	d105      	bne.n	8004ba6 <__libc_init_array+0x2e>
 8004b9a:	bd70      	pop	{r4, r5, r6, pc}
 8004b9c:	f856 3025 	ldr.w	r3, [r6, r5, lsl #2]
 8004ba0:	4798      	blx	r3
 8004ba2:	3501      	adds	r5, #1
 8004ba4:	e7ee      	b.n	8004b84 <__libc_init_array+0xc>
 8004ba6:	f856 3025 	ldr.w	r3, [r6, r5, lsl #2]
 8004baa:	4798      	blx	r3
 8004bac:	3501      	adds	r5, #1
 8004bae:	e7f2      	b.n	8004b96 <__libc_init_array+0x1e>
 8004bb0:	08006b48 	.word	0x08006b48
 8004bb4:	08006b48 	.word	0x08006b48
 8004bb8:	08006b48 	.word	0x08006b48
 8004bbc:	08006b4c 	.word	0x08006b4c

08004bc0 <memset>:
 8004bc0:	4402      	add	r2, r0
 8004bc2:	4603      	mov	r3, r0
 8004bc4:	4293      	cmp	r3, r2
 8004bc6:	d100      	bne.n	8004bca <memset+0xa>
 8004bc8:	4770      	bx	lr
 8004bca:	f803 1b01 	strb.w	r1, [r3], #1
 8004bce:	e7f9      	b.n	8004bc4 <memset+0x4>

08004bd0 <strcpy>:
 8004bd0:	4603      	mov	r3, r0
 8004bd2:	f811 2b01 	ldrb.w	r2, [r1], #1
 8004bd6:	f803 2b01 	strb.w	r2, [r3], #1
 8004bda:	2a00      	cmp	r2, #0
 8004bdc:	d1f9      	bne.n	8004bd2 <strcpy+0x2>
 8004bde:	4770      	bx	lr

08004be0 <pow>:
 8004be0:	e92d 4ff0 	stmdb	sp!, {r4, r5, r6, r7, r8, r9, sl, fp, lr}
 8004be4:	ed2d 8b04 	vpush	{d8-d9}
 8004be8:	f8df 92d0 	ldr.w	r9, [pc, #720]	; 8004ebc <pow+0x2dc>
 8004bec:	b08d      	sub	sp, #52	; 0x34
 8004bee:	ec57 6b10 	vmov	r6, r7, d0
 8004bf2:	ec55 4b11 	vmov	r4, r5, d1
 8004bf6:	f000 f963 	bl	8004ec0 <__ieee754_pow>
 8004bfa:	f999 3000 	ldrsb.w	r3, [r9]
 8004bfe:	9300      	str	r3, [sp, #0]
 8004c00:	3301      	adds	r3, #1
 8004c02:	eeb0 8a40 	vmov.f32	s16, s0
 8004c06:	eef0 8a60 	vmov.f32	s17, s1
 8004c0a:	46c8      	mov	r8, r9
 8004c0c:	d05f      	beq.n	8004cce <pow+0xee>
 8004c0e:	4622      	mov	r2, r4
 8004c10:	462b      	mov	r3, r5
 8004c12:	4620      	mov	r0, r4
 8004c14:	4629      	mov	r1, r5
 8004c16:	f7fb ff3d 	bl	8000a94 <__aeabi_dcmpun>
 8004c1a:	4683      	mov	fp, r0
 8004c1c:	2800      	cmp	r0, #0
 8004c1e:	d156      	bne.n	8004cce <pow+0xee>
 8004c20:	4632      	mov	r2, r6
 8004c22:	463b      	mov	r3, r7
 8004c24:	4630      	mov	r0, r6
 8004c26:	4639      	mov	r1, r7
 8004c28:	f7fb ff34 	bl	8000a94 <__aeabi_dcmpun>
 8004c2c:	9001      	str	r0, [sp, #4]
 8004c2e:	b1e8      	cbz	r0, 8004c6c <pow+0x8c>
 8004c30:	2200      	movs	r2, #0
 8004c32:	2300      	movs	r3, #0
 8004c34:	4620      	mov	r0, r4
 8004c36:	4629      	mov	r1, r5
 8004c38:	f7fb fefa 	bl	8000a30 <__aeabi_dcmpeq>
 8004c3c:	2800      	cmp	r0, #0
 8004c3e:	d046      	beq.n	8004cce <pow+0xee>
 8004c40:	2301      	movs	r3, #1
 8004c42:	9302      	str	r3, [sp, #8]
 8004c44:	4b96      	ldr	r3, [pc, #600]	; (8004ea0 <pow+0x2c0>)
 8004c46:	9303      	str	r3, [sp, #12]
 8004c48:	4b96      	ldr	r3, [pc, #600]	; (8004ea4 <pow+0x2c4>)
 8004c4a:	f8cd b028 	str.w	fp, [sp, #40]	; 0x28
 8004c4e:	2200      	movs	r2, #0
 8004c50:	e9cd 2308 	strd	r2, r3, [sp, #32]
 8004c54:	9b00      	ldr	r3, [sp, #0]
 8004c56:	2b02      	cmp	r3, #2
 8004c58:	e9cd 6704 	strd	r6, r7, [sp, #16]
 8004c5c:	e9cd 4506 	strd	r4, r5, [sp, #24]
 8004c60:	d033      	beq.n	8004cca <pow+0xea>
 8004c62:	a802      	add	r0, sp, #8
 8004c64:	f000 fefb 	bl	8005a5e <matherr>
 8004c68:	bb48      	cbnz	r0, 8004cbe <pow+0xde>
 8004c6a:	e05d      	b.n	8004d28 <pow+0x148>
 8004c6c:	f04f 0a00 	mov.w	sl, #0
 8004c70:	f04f 0b00 	mov.w	fp, #0
 8004c74:	4652      	mov	r2, sl
 8004c76:	465b      	mov	r3, fp
 8004c78:	4630      	mov	r0, r6
 8004c7a:	4639      	mov	r1, r7
 8004c7c:	f7fb fed8 	bl	8000a30 <__aeabi_dcmpeq>
 8004c80:	ec4b ab19 	vmov	d9, sl, fp
 8004c84:	2800      	cmp	r0, #0
 8004c86:	d054      	beq.n	8004d32 <pow+0x152>
 8004c88:	4652      	mov	r2, sl
 8004c8a:	465b      	mov	r3, fp
 8004c8c:	4620      	mov	r0, r4
 8004c8e:	4629      	mov	r1, r5
 8004c90:	f7fb fece 	bl	8000a30 <__aeabi_dcmpeq>
 8004c94:	4680      	mov	r8, r0
 8004c96:	b318      	cbz	r0, 8004ce0 <pow+0x100>
 8004c98:	2301      	movs	r3, #1
 8004c9a:	9302      	str	r3, [sp, #8]
 8004c9c:	4b80      	ldr	r3, [pc, #512]	; (8004ea0 <pow+0x2c0>)
 8004c9e:	9303      	str	r3, [sp, #12]
 8004ca0:	9b01      	ldr	r3, [sp, #4]
 8004ca2:	930a      	str	r3, [sp, #40]	; 0x28
 8004ca4:	9b00      	ldr	r3, [sp, #0]
 8004ca6:	e9cd 6704 	strd	r6, r7, [sp, #16]
 8004caa:	e9cd 4506 	strd	r4, r5, [sp, #24]
 8004cae:	e9cd ab08 	strd	sl, fp, [sp, #32]
 8004cb2:	2b00      	cmp	r3, #0
 8004cb4:	d0d5      	beq.n	8004c62 <pow+0x82>
 8004cb6:	4b7b      	ldr	r3, [pc, #492]	; (8004ea4 <pow+0x2c4>)
 8004cb8:	2200      	movs	r2, #0
 8004cba:	e9cd 2308 	strd	r2, r3, [sp, #32]
 8004cbe:	9b0a      	ldr	r3, [sp, #40]	; 0x28
 8004cc0:	b11b      	cbz	r3, 8004cca <pow+0xea>
 8004cc2:	f7ff ff53 	bl	8004b6c <__errno>
 8004cc6:	9b0a      	ldr	r3, [sp, #40]	; 0x28
 8004cc8:	6003      	str	r3, [r0, #0]
 8004cca:	ed9d 8b08 	vldr	d8, [sp, #32]
 8004cce:	eeb0 0a48 	vmov.f32	s0, s16
 8004cd2:	eef0 0a68 	vmov.f32	s1, s17
 8004cd6:	b00d      	add	sp, #52	; 0x34
 8004cd8:	ecbd 8b04 	vpop	{d8-d9}
 8004cdc:	e8bd 8ff0 	ldmia.w	sp!, {r4, r5, r6, r7, r8, r9, sl, fp, pc}
 8004ce0:	ec45 4b10 	vmov	d0, r4, r5
 8004ce4:	f000 feb3 	bl	8005a4e <finite>
 8004ce8:	2800      	cmp	r0, #0
 8004cea:	d0f0      	beq.n	8004cce <pow+0xee>
 8004cec:	4652      	mov	r2, sl
 8004cee:	465b      	mov	r3, fp
 8004cf0:	4620      	mov	r0, r4
 8004cf2:	4629      	mov	r1, r5
 8004cf4:	f7fb fea6 	bl	8000a44 <__aeabi_dcmplt>
 8004cf8:	2800      	cmp	r0, #0
 8004cfa:	d0e8      	beq.n	8004cce <pow+0xee>
 8004cfc:	2301      	movs	r3, #1
 8004cfe:	9302      	str	r3, [sp, #8]
 8004d00:	4b67      	ldr	r3, [pc, #412]	; (8004ea0 <pow+0x2c0>)
 8004d02:	9303      	str	r3, [sp, #12]
 8004d04:	f999 3000 	ldrsb.w	r3, [r9]
 8004d08:	f8cd 8028 	str.w	r8, [sp, #40]	; 0x28
 8004d0c:	e9cd 6704 	strd	r6, r7, [sp, #16]
 8004d10:	e9cd 4506 	strd	r4, r5, [sp, #24]
 8004d14:	b913      	cbnz	r3, 8004d1c <pow+0x13c>
 8004d16:	e9cd ab08 	strd	sl, fp, [sp, #32]
 8004d1a:	e7a2      	b.n	8004c62 <pow+0x82>
 8004d1c:	4962      	ldr	r1, [pc, #392]	; (8004ea8 <pow+0x2c8>)
 8004d1e:	2000      	movs	r0, #0
 8004d20:	e9cd 0108 	strd	r0, r1, [sp, #32]
 8004d24:	2b02      	cmp	r3, #2
 8004d26:	d19c      	bne.n	8004c62 <pow+0x82>
 8004d28:	f7ff ff20 	bl	8004b6c <__errno>
 8004d2c:	2321      	movs	r3, #33	; 0x21
 8004d2e:	6003      	str	r3, [r0, #0]
 8004d30:	e7c5      	b.n	8004cbe <pow+0xde>
 8004d32:	eeb0 0a48 	vmov.f32	s0, s16
 8004d36:	eef0 0a68 	vmov.f32	s1, s17
 8004d3a:	f000 fe88 	bl	8005a4e <finite>
 8004d3e:	9000      	str	r0, [sp, #0]
 8004d40:	2800      	cmp	r0, #0
 8004d42:	f040 8081 	bne.w	8004e48 <pow+0x268>
 8004d46:	ec47 6b10 	vmov	d0, r6, r7
 8004d4a:	f000 fe80 	bl	8005a4e <finite>
 8004d4e:	2800      	cmp	r0, #0
 8004d50:	d07a      	beq.n	8004e48 <pow+0x268>
 8004d52:	ec45 4b10 	vmov	d0, r4, r5
 8004d56:	f000 fe7a 	bl	8005a4e <finite>
 8004d5a:	2800      	cmp	r0, #0
 8004d5c:	d074      	beq.n	8004e48 <pow+0x268>
 8004d5e:	ec53 2b18 	vmov	r2, r3, d8
 8004d62:	ee18 0a10 	vmov	r0, s16
 8004d66:	4619      	mov	r1, r3
 8004d68:	f7fb fe94 	bl	8000a94 <__aeabi_dcmpun>
 8004d6c:	f999 9000 	ldrsb.w	r9, [r9]
 8004d70:	4b4b      	ldr	r3, [pc, #300]	; (8004ea0 <pow+0x2c0>)
 8004d72:	b1b0      	cbz	r0, 8004da2 <pow+0x1c2>
 8004d74:	2201      	movs	r2, #1
 8004d76:	e9cd 2302 	strd	r2, r3, [sp, #8]
 8004d7a:	9b00      	ldr	r3, [sp, #0]
 8004d7c:	930a      	str	r3, [sp, #40]	; 0x28
 8004d7e:	e9cd 6704 	strd	r6, r7, [sp, #16]
 8004d82:	e9cd 4506 	strd	r4, r5, [sp, #24]
 8004d86:	f1b9 0f00 	cmp.w	r9, #0
 8004d8a:	d0c4      	beq.n	8004d16 <pow+0x136>
 8004d8c:	4652      	mov	r2, sl
 8004d8e:	465b      	mov	r3, fp
 8004d90:	4650      	mov	r0, sl
 8004d92:	4659      	mov	r1, fp
 8004d94:	f7fb fd0e 	bl	80007b4 <__aeabi_ddiv>
 8004d98:	f1b9 0f02 	cmp.w	r9, #2
 8004d9c:	e9cd 0108 	strd	r0, r1, [sp, #32]
 8004da0:	e7c1      	b.n	8004d26 <pow+0x146>
 8004da2:	2203      	movs	r2, #3
 8004da4:	e9cd 2302 	strd	r2, r3, [sp, #8]
 8004da8:	900a      	str	r0, [sp, #40]	; 0x28
 8004daa:	4629      	mov	r1, r5
 8004dac:	4620      	mov	r0, r4
 8004dae:	2200      	movs	r2, #0
 8004db0:	4b3e      	ldr	r3, [pc, #248]	; (8004eac <pow+0x2cc>)
 8004db2:	e9cd 4506 	strd	r4, r5, [sp, #24]
 8004db6:	e9cd 6704 	strd	r6, r7, [sp, #16]
 8004dba:	f7fb fbd1 	bl	8000560 <__aeabi_dmul>
 8004dbe:	4604      	mov	r4, r0
 8004dc0:	460d      	mov	r5, r1
 8004dc2:	f1b9 0f00 	cmp.w	r9, #0
 8004dc6:	d124      	bne.n	8004e12 <pow+0x232>
 8004dc8:	4b39      	ldr	r3, [pc, #228]	; (8004eb0 <pow+0x2d0>)
 8004dca:	f04f 4260 	mov.w	r2, #3758096384	; 0xe0000000
 8004dce:	e9cd 2308 	strd	r2, r3, [sp, #32]
 8004dd2:	4630      	mov	r0, r6
 8004dd4:	4652      	mov	r2, sl
 8004dd6:	465b      	mov	r3, fp
 8004dd8:	4639      	mov	r1, r7
 8004dda:	f7fb fe33 	bl	8000a44 <__aeabi_dcmplt>
 8004dde:	2800      	cmp	r0, #0
 8004de0:	d056      	beq.n	8004e90 <pow+0x2b0>
 8004de2:	ec45 4b10 	vmov	d0, r4, r5
 8004de6:	f000 fe47 	bl	8005a78 <rint>
 8004dea:	4622      	mov	r2, r4
 8004dec:	462b      	mov	r3, r5
 8004dee:	ec51 0b10 	vmov	r0, r1, d0
 8004df2:	f7fb fe1d 	bl	8000a30 <__aeabi_dcmpeq>
 8004df6:	b920      	cbnz	r0, 8004e02 <pow+0x222>
 8004df8:	4b2e      	ldr	r3, [pc, #184]	; (8004eb4 <pow+0x2d4>)
 8004dfa:	f04f 4260 	mov.w	r2, #3758096384	; 0xe0000000
 8004dfe:	e9cd 2308 	strd	r2, r3, [sp, #32]
 8004e02:	f998 3000 	ldrsb.w	r3, [r8]
 8004e06:	2b02      	cmp	r3, #2
 8004e08:	d142      	bne.n	8004e90 <pow+0x2b0>
 8004e0a:	f7ff feaf 	bl	8004b6c <__errno>
 8004e0e:	2322      	movs	r3, #34	; 0x22
 8004e10:	e78d      	b.n	8004d2e <pow+0x14e>
 8004e12:	4b29      	ldr	r3, [pc, #164]	; (8004eb8 <pow+0x2d8>)
 8004e14:	2200      	movs	r2, #0
 8004e16:	e9cd 2308 	strd	r2, r3, [sp, #32]
 8004e1a:	4630      	mov	r0, r6
 8004e1c:	4652      	mov	r2, sl
 8004e1e:	465b      	mov	r3, fp
 8004e20:	4639      	mov	r1, r7
 8004e22:	f7fb fe0f 	bl	8000a44 <__aeabi_dcmplt>
 8004e26:	2800      	cmp	r0, #0
 8004e28:	d0eb      	beq.n	8004e02 <pow+0x222>
 8004e2a:	ec45 4b10 	vmov	d0, r4, r5
 8004e2e:	f000 fe23 	bl	8005a78 <rint>
 8004e32:	4622      	mov	r2, r4
 8004e34:	462b      	mov	r3, r5
 8004e36:	ec51 0b10 	vmov	r0, r1, d0
 8004e3a:	f7fb fdf9 	bl	8000a30 <__aeabi_dcmpeq>
 8004e3e:	2800      	cmp	r0, #0
 8004e40:	d1df      	bne.n	8004e02 <pow+0x222>
 8004e42:	2200      	movs	r2, #0
 8004e44:	4b18      	ldr	r3, [pc, #96]	; (8004ea8 <pow+0x2c8>)
 8004e46:	e7da      	b.n	8004dfe <pow+0x21e>
 8004e48:	2200      	movs	r2, #0
 8004e4a:	2300      	movs	r3, #0
 8004e4c:	ec51 0b18 	vmov	r0, r1, d8
 8004e50:	f7fb fdee 	bl	8000a30 <__aeabi_dcmpeq>
 8004e54:	2800      	cmp	r0, #0
 8004e56:	f43f af3a 	beq.w	8004cce <pow+0xee>
 8004e5a:	ec47 6b10 	vmov	d0, r6, r7
 8004e5e:	f000 fdf6 	bl	8005a4e <finite>
 8004e62:	2800      	cmp	r0, #0
 8004e64:	f43f af33 	beq.w	8004cce <pow+0xee>
 8004e68:	ec45 4b10 	vmov	d0, r4, r5
 8004e6c:	f000 fdef 	bl	8005a4e <finite>
 8004e70:	2800      	cmp	r0, #0
 8004e72:	f43f af2c 	beq.w	8004cce <pow+0xee>
 8004e76:	2304      	movs	r3, #4
 8004e78:	9302      	str	r3, [sp, #8]
 8004e7a:	4b09      	ldr	r3, [pc, #36]	; (8004ea0 <pow+0x2c0>)
 8004e7c:	9303      	str	r3, [sp, #12]
 8004e7e:	2300      	movs	r3, #0
 8004e80:	930a      	str	r3, [sp, #40]	; 0x28
 8004e82:	e9cd 6704 	strd	r6, r7, [sp, #16]
 8004e86:	e9cd 4506 	strd	r4, r5, [sp, #24]
 8004e8a:	ed8d 9b08 	vstr	d9, [sp, #32]
 8004e8e:	e7b8      	b.n	8004e02 <pow+0x222>
 8004e90:	a802      	add	r0, sp, #8
 8004e92:	f000 fde4 	bl	8005a5e <matherr>
 8004e96:	2800      	cmp	r0, #0
 8004e98:	f47f af11 	bne.w	8004cbe <pow+0xde>
 8004e9c:	e7b5      	b.n	8004e0a <pow+0x22a>
 8004e9e:	bf00      	nop
 8004ea0:	08006af8 	.word	0x08006af8
 8004ea4:	3ff00000 	.word	0x3ff00000
 8004ea8:	fff00000 	.word	0xfff00000
 8004eac:	3fe00000 	.word	0x3fe00000
 8004eb0:	47efffff 	.word	0x47efffff
 8004eb4:	c7efffff 	.word	0xc7efffff
 8004eb8:	7ff00000 	.word	0x7ff00000
 8004ebc:	2000008c 	.word	0x2000008c

08004ec0 <__ieee754_pow>:
 8004ec0:	e92d 4ff0 	stmdb	sp!, {r4, r5, r6, r7, r8, r9, sl, fp, lr}
 8004ec4:	b091      	sub	sp, #68	; 0x44
 8004ec6:	ed8d 1b00 	vstr	d1, [sp]
 8004eca:	e9dd 2900 	ldrd	r2, r9, [sp]
 8004ece:	f029 4800 	bic.w	r8, r9, #2147483648	; 0x80000000
 8004ed2:	ea58 0302 	orrs.w	r3, r8, r2
 8004ed6:	ec57 6b10 	vmov	r6, r7, d0
 8004eda:	f000 84be 	beq.w	800585a <__ieee754_pow+0x99a>
 8004ede:	4b7a      	ldr	r3, [pc, #488]	; (80050c8 <__ieee754_pow+0x208>)
 8004ee0:	f027 4400 	bic.w	r4, r7, #2147483648	; 0x80000000
 8004ee4:	429c      	cmp	r4, r3
 8004ee6:	463d      	mov	r5, r7
 8004ee8:	ee10 aa10 	vmov	sl, s0
 8004eec:	dc09      	bgt.n	8004f02 <__ieee754_pow+0x42>
 8004eee:	d103      	bne.n	8004ef8 <__ieee754_pow+0x38>
 8004ef0:	b93e      	cbnz	r6, 8004f02 <__ieee754_pow+0x42>
 8004ef2:	45a0      	cmp	r8, r4
 8004ef4:	dc0d      	bgt.n	8004f12 <__ieee754_pow+0x52>
 8004ef6:	e001      	b.n	8004efc <__ieee754_pow+0x3c>
 8004ef8:	4598      	cmp	r8, r3
 8004efa:	dc02      	bgt.n	8004f02 <__ieee754_pow+0x42>
 8004efc:	4598      	cmp	r8, r3
 8004efe:	d10e      	bne.n	8004f1e <__ieee754_pow+0x5e>
 8004f00:	b16a      	cbz	r2, 8004f1e <__ieee754_pow+0x5e>
 8004f02:	f104 4440 	add.w	r4, r4, #3221225472	; 0xc0000000
 8004f06:	f504 1480 	add.w	r4, r4, #1048576	; 0x100000
 8004f0a:	ea54 030a 	orrs.w	r3, r4, sl
 8004f0e:	f000 84a4 	beq.w	800585a <__ieee754_pow+0x99a>
 8004f12:	486e      	ldr	r0, [pc, #440]	; (80050cc <__ieee754_pow+0x20c>)
 8004f14:	b011      	add	sp, #68	; 0x44
 8004f16:	e8bd 4ff0 	ldmia.w	sp!, {r4, r5, r6, r7, r8, r9, sl, fp, lr}
 8004f1a:	f000 bda5 	b.w	8005a68 <nan>
 8004f1e:	2d00      	cmp	r5, #0
 8004f20:	da53      	bge.n	8004fca <__ieee754_pow+0x10a>
 8004f22:	4b6b      	ldr	r3, [pc, #428]	; (80050d0 <__ieee754_pow+0x210>)
 8004f24:	4598      	cmp	r8, r3
 8004f26:	dc4d      	bgt.n	8004fc4 <__ieee754_pow+0x104>
 8004f28:	f1a3 7354 	sub.w	r3, r3, #55574528	; 0x3500000
 8004f2c:	4598      	cmp	r8, r3
 8004f2e:	dd4c      	ble.n	8004fca <__ieee754_pow+0x10a>
 8004f30:	ea4f 5328 	mov.w	r3, r8, asr #20
 8004f34:	f2a3 33ff 	subw	r3, r3, #1023	; 0x3ff
 8004f38:	2b14      	cmp	r3, #20
 8004f3a:	dd26      	ble.n	8004f8a <__ieee754_pow+0xca>
 8004f3c:	f1c3 0334 	rsb	r3, r3, #52	; 0x34
 8004f40:	fa22 f103 	lsr.w	r1, r2, r3
 8004f44:	fa01 f303 	lsl.w	r3, r1, r3
 8004f48:	4293      	cmp	r3, r2
 8004f4a:	d13e      	bne.n	8004fca <__ieee754_pow+0x10a>
 8004f4c:	f001 0101 	and.w	r1, r1, #1
 8004f50:	f1c1 0b02 	rsb	fp, r1, #2
 8004f54:	2a00      	cmp	r2, #0
 8004f56:	d15b      	bne.n	8005010 <__ieee754_pow+0x150>
 8004f58:	4b5b      	ldr	r3, [pc, #364]	; (80050c8 <__ieee754_pow+0x208>)
 8004f5a:	4598      	cmp	r8, r3
 8004f5c:	d124      	bne.n	8004fa8 <__ieee754_pow+0xe8>
 8004f5e:	f104 4340 	add.w	r3, r4, #3221225472	; 0xc0000000
 8004f62:	f503 1380 	add.w	r3, r3, #1048576	; 0x100000
 8004f66:	ea53 030a 	orrs.w	r3, r3, sl
 8004f6a:	f000 8476 	beq.w	800585a <__ieee754_pow+0x99a>
 8004f6e:	4b59      	ldr	r3, [pc, #356]	; (80050d4 <__ieee754_pow+0x214>)
 8004f70:	429c      	cmp	r4, r3
 8004f72:	dd2d      	ble.n	8004fd0 <__ieee754_pow+0x110>
 8004f74:	f1b9 0f00 	cmp.w	r9, #0
 8004f78:	f280 8473 	bge.w	8005862 <__ieee754_pow+0x9a2>
 8004f7c:	2000      	movs	r0, #0
 8004f7e:	2100      	movs	r1, #0
 8004f80:	ec41 0b10 	vmov	d0, r0, r1
 8004f84:	b011      	add	sp, #68	; 0x44
 8004f86:	e8bd 8ff0 	ldmia.w	sp!, {r4, r5, r6, r7, r8, r9, sl, fp, pc}
 8004f8a:	2a00      	cmp	r2, #0
 8004f8c:	d13e      	bne.n	800500c <__ieee754_pow+0x14c>
 8004f8e:	f1c3 0314 	rsb	r3, r3, #20
 8004f92:	fa48 f103 	asr.w	r1, r8, r3
 8004f96:	fa01 f303 	lsl.w	r3, r1, r3
 8004f9a:	4543      	cmp	r3, r8
 8004f9c:	f040 8469 	bne.w	8005872 <__ieee754_pow+0x9b2>
 8004fa0:	f001 0101 	and.w	r1, r1, #1
 8004fa4:	f1c1 0b02 	rsb	fp, r1, #2
 8004fa8:	4b4b      	ldr	r3, [pc, #300]	; (80050d8 <__ieee754_pow+0x218>)
 8004faa:	4598      	cmp	r8, r3
 8004fac:	d118      	bne.n	8004fe0 <__ieee754_pow+0x120>
 8004fae:	f1b9 0f00 	cmp.w	r9, #0
 8004fb2:	f280 845a 	bge.w	800586a <__ieee754_pow+0x9aa>
 8004fb6:	4948      	ldr	r1, [pc, #288]	; (80050d8 <__ieee754_pow+0x218>)
 8004fb8:	4632      	mov	r2, r6
 8004fba:	463b      	mov	r3, r7
 8004fbc:	2000      	movs	r0, #0
 8004fbe:	f7fb fbf9 	bl	80007b4 <__aeabi_ddiv>
 8004fc2:	e7dd      	b.n	8004f80 <__ieee754_pow+0xc0>
 8004fc4:	f04f 0b02 	mov.w	fp, #2
 8004fc8:	e7c4      	b.n	8004f54 <__ieee754_pow+0x94>
 8004fca:	f04f 0b00 	mov.w	fp, #0
 8004fce:	e7c1      	b.n	8004f54 <__ieee754_pow+0x94>
 8004fd0:	f1b9 0f00 	cmp.w	r9, #0
 8004fd4:	dad2      	bge.n	8004f7c <__ieee754_pow+0xbc>
 8004fd6:	e9dd 0300 	ldrd	r0, r3, [sp]
 8004fda:	f103 4100 	add.w	r1, r3, #2147483648	; 0x80000000
 8004fde:	e7cf      	b.n	8004f80 <__ieee754_pow+0xc0>
 8004fe0:	f1b9 4f80 	cmp.w	r9, #1073741824	; 0x40000000
 8004fe4:	d106      	bne.n	8004ff4 <__ieee754_pow+0x134>
 8004fe6:	4632      	mov	r2, r6
 8004fe8:	463b      	mov	r3, r7
 8004fea:	4610      	mov	r0, r2
 8004fec:	4619      	mov	r1, r3
 8004fee:	f7fb fab7 	bl	8000560 <__aeabi_dmul>
 8004ff2:	e7c5      	b.n	8004f80 <__ieee754_pow+0xc0>
 8004ff4:	4b39      	ldr	r3, [pc, #228]	; (80050dc <__ieee754_pow+0x21c>)
 8004ff6:	4599      	cmp	r9, r3
 8004ff8:	d10a      	bne.n	8005010 <__ieee754_pow+0x150>
 8004ffa:	2d00      	cmp	r5, #0
 8004ffc:	db08      	blt.n	8005010 <__ieee754_pow+0x150>
 8004ffe:	ec47 6b10 	vmov	d0, r6, r7
 8005002:	b011      	add	sp, #68	; 0x44
 8005004:	e8bd 4ff0 	ldmia.w	sp!, {r4, r5, r6, r7, r8, r9, sl, fp, lr}
 8005008:	f000 bc68 	b.w	80058dc <__ieee754_sqrt>
 800500c:	f04f 0b00 	mov.w	fp, #0
 8005010:	ec47 6b10 	vmov	d0, r6, r7
 8005014:	f000 fd12 	bl	8005a3c <fabs>
 8005018:	ec51 0b10 	vmov	r0, r1, d0
 800501c:	f1ba 0f00 	cmp.w	sl, #0
 8005020:	d127      	bne.n	8005072 <__ieee754_pow+0x1b2>
 8005022:	b124      	cbz	r4, 800502e <__ieee754_pow+0x16e>
 8005024:	4b2c      	ldr	r3, [pc, #176]	; (80050d8 <__ieee754_pow+0x218>)
 8005026:	f025 4240 	bic.w	r2, r5, #3221225472	; 0xc0000000
 800502a:	429a      	cmp	r2, r3
 800502c:	d121      	bne.n	8005072 <__ieee754_pow+0x1b2>
 800502e:	f1b9 0f00 	cmp.w	r9, #0
 8005032:	da05      	bge.n	8005040 <__ieee754_pow+0x180>
 8005034:	4602      	mov	r2, r0
 8005036:	460b      	mov	r3, r1
 8005038:	2000      	movs	r0, #0
 800503a:	4927      	ldr	r1, [pc, #156]	; (80050d8 <__ieee754_pow+0x218>)
 800503c:	f7fb fbba 	bl	80007b4 <__aeabi_ddiv>
 8005040:	2d00      	cmp	r5, #0
 8005042:	da9d      	bge.n	8004f80 <__ieee754_pow+0xc0>
 8005044:	f104 4440 	add.w	r4, r4, #3221225472	; 0xc0000000
 8005048:	f504 1480 	add.w	r4, r4, #1048576	; 0x100000
 800504c:	ea54 030b 	orrs.w	r3, r4, fp
 8005050:	d108      	bne.n	8005064 <__ieee754_pow+0x1a4>
 8005052:	4602      	mov	r2, r0
 8005054:	460b      	mov	r3, r1
 8005056:	4610      	mov	r0, r2
 8005058:	4619      	mov	r1, r3
 800505a:	f7fb f8c9 	bl	80001f0 <__aeabi_dsub>
 800505e:	4602      	mov	r2, r0
 8005060:	460b      	mov	r3, r1
 8005062:	e7ac      	b.n	8004fbe <__ieee754_pow+0xfe>
 8005064:	f1bb 0f01 	cmp.w	fp, #1
 8005068:	d18a      	bne.n	8004f80 <__ieee754_pow+0xc0>
 800506a:	f101 4300 	add.w	r3, r1, #2147483648	; 0x80000000
 800506e:	4619      	mov	r1, r3
 8005070:	e786      	b.n	8004f80 <__ieee754_pow+0xc0>
 8005072:	0fed      	lsrs	r5, r5, #31
 8005074:	1e6b      	subs	r3, r5, #1
 8005076:	930d      	str	r3, [sp, #52]	; 0x34
 8005078:	ea5b 0303 	orrs.w	r3, fp, r3
 800507c:	d102      	bne.n	8005084 <__ieee754_pow+0x1c4>
 800507e:	4632      	mov	r2, r6
 8005080:	463b      	mov	r3, r7
 8005082:	e7e8      	b.n	8005056 <__ieee754_pow+0x196>
 8005084:	4b16      	ldr	r3, [pc, #88]	; (80050e0 <__ieee754_pow+0x220>)
 8005086:	4598      	cmp	r8, r3
 8005088:	f340 80fe 	ble.w	8005288 <__ieee754_pow+0x3c8>
 800508c:	f103 7304 	add.w	r3, r3, #34603008	; 0x2100000
 8005090:	4598      	cmp	r8, r3
 8005092:	dd0a      	ble.n	80050aa <__ieee754_pow+0x1ea>
 8005094:	4b0f      	ldr	r3, [pc, #60]	; (80050d4 <__ieee754_pow+0x214>)
 8005096:	429c      	cmp	r4, r3
 8005098:	dc0d      	bgt.n	80050b6 <__ieee754_pow+0x1f6>
 800509a:	f1b9 0f00 	cmp.w	r9, #0
 800509e:	f6bf af6d 	bge.w	8004f7c <__ieee754_pow+0xbc>
 80050a2:	a307      	add	r3, pc, #28	; (adr r3, 80050c0 <__ieee754_pow+0x200>)
 80050a4:	e9d3 2300 	ldrd	r2, r3, [r3]
 80050a8:	e79f      	b.n	8004fea <__ieee754_pow+0x12a>
 80050aa:	4b0e      	ldr	r3, [pc, #56]	; (80050e4 <__ieee754_pow+0x224>)
 80050ac:	429c      	cmp	r4, r3
 80050ae:	ddf4      	ble.n	800509a <__ieee754_pow+0x1da>
 80050b0:	4b09      	ldr	r3, [pc, #36]	; (80050d8 <__ieee754_pow+0x218>)
 80050b2:	429c      	cmp	r4, r3
 80050b4:	dd18      	ble.n	80050e8 <__ieee754_pow+0x228>
 80050b6:	f1b9 0f00 	cmp.w	r9, #0
 80050ba:	dcf2      	bgt.n	80050a2 <__ieee754_pow+0x1e2>
 80050bc:	e75e      	b.n	8004f7c <__ieee754_pow+0xbc>
 80050be:	bf00      	nop
 80050c0:	8800759c 	.word	0x8800759c
 80050c4:	7e37e43c 	.word	0x7e37e43c
 80050c8:	7ff00000 	.word	0x7ff00000
 80050cc:	08006610 	.word	0x08006610
 80050d0:	433fffff 	.word	0x433fffff
 80050d4:	3fefffff 	.word	0x3fefffff
 80050d8:	3ff00000 	.word	0x3ff00000
 80050dc:	3fe00000 	.word	0x3fe00000
 80050e0:	41e00000 	.word	0x41e00000
 80050e4:	3feffffe 	.word	0x3feffffe
 80050e8:	2200      	movs	r2, #0
 80050ea:	4b63      	ldr	r3, [pc, #396]	; (8005278 <__ieee754_pow+0x3b8>)
 80050ec:	f7fb f880 	bl	80001f0 <__aeabi_dsub>
 80050f0:	a355      	add	r3, pc, #340	; (adr r3, 8005248 <__ieee754_pow+0x388>)
 80050f2:	e9d3 2300 	ldrd	r2, r3, [r3]
 80050f6:	4604      	mov	r4, r0
 80050f8:	460d      	mov	r5, r1
 80050fa:	f7fb fa31 	bl	8000560 <__aeabi_dmul>
 80050fe:	a354      	add	r3, pc, #336	; (adr r3, 8005250 <__ieee754_pow+0x390>)
 8005100:	e9d3 2300 	ldrd	r2, r3, [r3]
 8005104:	4606      	mov	r6, r0
 8005106:	460f      	mov	r7, r1
 8005108:	4620      	mov	r0, r4
 800510a:	4629      	mov	r1, r5
 800510c:	f7fb fa28 	bl	8000560 <__aeabi_dmul>
 8005110:	2200      	movs	r2, #0
 8005112:	e9cd 0102 	strd	r0, r1, [sp, #8]
 8005116:	4b59      	ldr	r3, [pc, #356]	; (800527c <__ieee754_pow+0x3bc>)
 8005118:	4620      	mov	r0, r4
 800511a:	4629      	mov	r1, r5
 800511c:	f7fb fa20 	bl	8000560 <__aeabi_dmul>
 8005120:	4602      	mov	r2, r0
 8005122:	460b      	mov	r3, r1
 8005124:	a14c      	add	r1, pc, #304	; (adr r1, 8005258 <__ieee754_pow+0x398>)
 8005126:	e9d1 0100 	ldrd	r0, r1, [r1]
 800512a:	f7fb f861 	bl	80001f0 <__aeabi_dsub>
 800512e:	4622      	mov	r2, r4
 8005130:	462b      	mov	r3, r5
 8005132:	f7fb fa15 	bl	8000560 <__aeabi_dmul>
 8005136:	4602      	mov	r2, r0
 8005138:	460b      	mov	r3, r1
 800513a:	2000      	movs	r0, #0
 800513c:	4950      	ldr	r1, [pc, #320]	; (8005280 <__ieee754_pow+0x3c0>)
 800513e:	f7fb f857 	bl	80001f0 <__aeabi_dsub>
 8005142:	4622      	mov	r2, r4
 8005144:	462b      	mov	r3, r5
 8005146:	4680      	mov	r8, r0
 8005148:	4689      	mov	r9, r1
 800514a:	4620      	mov	r0, r4
 800514c:	4629      	mov	r1, r5
 800514e:	f7fb fa07 	bl	8000560 <__aeabi_dmul>
 8005152:	4602      	mov	r2, r0
 8005154:	460b      	mov	r3, r1
 8005156:	4640      	mov	r0, r8
 8005158:	4649      	mov	r1, r9
 800515a:	f7fb fa01 	bl	8000560 <__aeabi_dmul>
 800515e:	a340      	add	r3, pc, #256	; (adr r3, 8005260 <__ieee754_pow+0x3a0>)
 8005160:	e9d3 2300 	ldrd	r2, r3, [r3]
 8005164:	f7fb f9fc 	bl	8000560 <__aeabi_dmul>
 8005168:	4602      	mov	r2, r0
 800516a:	460b      	mov	r3, r1
 800516c:	e9dd 0102 	ldrd	r0, r1, [sp, #8]
 8005170:	f7fb f83e 	bl	80001f0 <__aeabi_dsub>
 8005174:	4602      	mov	r2, r0
 8005176:	460b      	mov	r3, r1
 8005178:	4604      	mov	r4, r0
 800517a:	460d      	mov	r5, r1
 800517c:	4630      	mov	r0, r6
 800517e:	4639      	mov	r1, r7
 8005180:	f7fb f838 	bl	80001f4 <__adddf3>
 8005184:	2000      	movs	r0, #0
 8005186:	e9cd 0104 	strd	r0, r1, [sp, #16]
 800518a:	4632      	mov	r2, r6
 800518c:	463b      	mov	r3, r7
 800518e:	f7fb f82f 	bl	80001f0 <__aeabi_dsub>
 8005192:	4602      	mov	r2, r0
 8005194:	460b      	mov	r3, r1
 8005196:	4620      	mov	r0, r4
 8005198:	4629      	mov	r1, r5
 800519a:	f7fb f829 	bl	80001f0 <__aeabi_dsub>
 800519e:	9a0d      	ldr	r2, [sp, #52]	; 0x34
 80051a0:	f10b 33ff 	add.w	r3, fp, #4294967295
 80051a4:	4313      	orrs	r3, r2
 80051a6:	4606      	mov	r6, r0
 80051a8:	460f      	mov	r7, r1
 80051aa:	f040 81eb 	bne.w	8005584 <__ieee754_pow+0x6c4>
 80051ae:	ed9f 7b2e 	vldr	d7, [pc, #184]	; 8005268 <__ieee754_pow+0x3a8>
 80051b2:	e9dd 4500 	ldrd	r4, r5, [sp]
 80051b6:	2400      	movs	r4, #0
 80051b8:	4622      	mov	r2, r4
 80051ba:	462b      	mov	r3, r5
 80051bc:	e9dd 0100 	ldrd	r0, r1, [sp]
 80051c0:	ed8d 7b02 	vstr	d7, [sp, #8]
 80051c4:	f7fb f814 	bl	80001f0 <__aeabi_dsub>
 80051c8:	e9dd 2304 	ldrd	r2, r3, [sp, #16]
 80051cc:	f7fb f9c8 	bl	8000560 <__aeabi_dmul>
 80051d0:	e9dd 2300 	ldrd	r2, r3, [sp]
 80051d4:	4680      	mov	r8, r0
 80051d6:	4689      	mov	r9, r1
 80051d8:	4630      	mov	r0, r6
 80051da:	4639      	mov	r1, r7
 80051dc:	f7fb f9c0 	bl	8000560 <__aeabi_dmul>
 80051e0:	4602      	mov	r2, r0
 80051e2:	460b      	mov	r3, r1
 80051e4:	4640      	mov	r0, r8
 80051e6:	4649      	mov	r1, r9
 80051e8:	f7fb f804 	bl	80001f4 <__adddf3>
 80051ec:	4622      	mov	r2, r4
 80051ee:	462b      	mov	r3, r5
 80051f0:	4680      	mov	r8, r0
 80051f2:	4689      	mov	r9, r1
 80051f4:	e9dd 0104 	ldrd	r0, r1, [sp, #16]
 80051f8:	f7fb f9b2 	bl	8000560 <__aeabi_dmul>
 80051fc:	460b      	mov	r3, r1
 80051fe:	4604      	mov	r4, r0
 8005200:	460d      	mov	r5, r1
 8005202:	4602      	mov	r2, r0
 8005204:	4649      	mov	r1, r9
 8005206:	4640      	mov	r0, r8
 8005208:	e9cd 4500 	strd	r4, r5, [sp]
 800520c:	f7fa fff2 	bl	80001f4 <__adddf3>
 8005210:	4b1c      	ldr	r3, [pc, #112]	; (8005284 <__ieee754_pow+0x3c4>)
 8005212:	4299      	cmp	r1, r3
 8005214:	4606      	mov	r6, r0
 8005216:	460f      	mov	r7, r1
 8005218:	468b      	mov	fp, r1
 800521a:	f340 82f7 	ble.w	800580c <__ieee754_pow+0x94c>
 800521e:	f101 433f 	add.w	r3, r1, #3204448256	; 0xbf000000
 8005222:	f503 03e0 	add.w	r3, r3, #7340032	; 0x700000
 8005226:	4303      	orrs	r3, r0
 8005228:	f000 81ea 	beq.w	8005600 <__ieee754_pow+0x740>
 800522c:	a310      	add	r3, pc, #64	; (adr r3, 8005270 <__ieee754_pow+0x3b0>)
 800522e:	e9d3 2300 	ldrd	r2, r3, [r3]
 8005232:	e9dd 0102 	ldrd	r0, r1, [sp, #8]
 8005236:	f7fb f993 	bl	8000560 <__aeabi_dmul>
 800523a:	a30d      	add	r3, pc, #52	; (adr r3, 8005270 <__ieee754_pow+0x3b0>)
 800523c:	e9d3 2300 	ldrd	r2, r3, [r3]
 8005240:	e6d5      	b.n	8004fee <__ieee754_pow+0x12e>
 8005242:	bf00      	nop
 8005244:	f3af 8000 	nop.w
 8005248:	60000000 	.word	0x60000000
 800524c:	3ff71547 	.word	0x3ff71547
 8005250:	f85ddf44 	.word	0xf85ddf44
 8005254:	3e54ae0b 	.word	0x3e54ae0b
 8005258:	55555555 	.word	0x55555555
 800525c:	3fd55555 	.word	0x3fd55555
 8005260:	652b82fe 	.word	0x652b82fe
 8005264:	3ff71547 	.word	0x3ff71547
 8005268:	00000000 	.word	0x00000000
 800526c:	bff00000 	.word	0xbff00000
 8005270:	8800759c 	.word	0x8800759c
 8005274:	7e37e43c 	.word	0x7e37e43c
 8005278:	3ff00000 	.word	0x3ff00000
 800527c:	3fd00000 	.word	0x3fd00000
 8005280:	3fe00000 	.word	0x3fe00000
 8005284:	408fffff 	.word	0x408fffff
 8005288:	f5b4 1f80 	cmp.w	r4, #1048576	; 0x100000
 800528c:	f04f 0200 	mov.w	r2, #0
 8005290:	da05      	bge.n	800529e <__ieee754_pow+0x3de>
 8005292:	4bd3      	ldr	r3, [pc, #844]	; (80055e0 <__ieee754_pow+0x720>)
 8005294:	f7fb f964 	bl	8000560 <__aeabi_dmul>
 8005298:	f06f 0234 	mvn.w	r2, #52	; 0x34
 800529c:	460c      	mov	r4, r1
 800529e:	1523      	asrs	r3, r4, #20
 80052a0:	f2a3 33ff 	subw	r3, r3, #1023	; 0x3ff
 80052a4:	4413      	add	r3, r2
 80052a6:	9309      	str	r3, [sp, #36]	; 0x24
 80052a8:	4bce      	ldr	r3, [pc, #824]	; (80055e4 <__ieee754_pow+0x724>)
 80052aa:	f3c4 0413 	ubfx	r4, r4, #0, #20
 80052ae:	f044 557f 	orr.w	r5, r4, #1069547520	; 0x3fc00000
 80052b2:	429c      	cmp	r4, r3
 80052b4:	f445 1540 	orr.w	r5, r5, #3145728	; 0x300000
 80052b8:	dd08      	ble.n	80052cc <__ieee754_pow+0x40c>
 80052ba:	4bcb      	ldr	r3, [pc, #812]	; (80055e8 <__ieee754_pow+0x728>)
 80052bc:	429c      	cmp	r4, r3
 80052be:	f340 815e 	ble.w	800557e <__ieee754_pow+0x6be>
 80052c2:	9b09      	ldr	r3, [sp, #36]	; 0x24
 80052c4:	3301      	adds	r3, #1
 80052c6:	9309      	str	r3, [sp, #36]	; 0x24
 80052c8:	f5a5 1580 	sub.w	r5, r5, #1048576	; 0x100000
 80052cc:	f04f 0a00 	mov.w	sl, #0
 80052d0:	ea4f 03ca 	mov.w	r3, sl, lsl #3
 80052d4:	930c      	str	r3, [sp, #48]	; 0x30
 80052d6:	9a0c      	ldr	r2, [sp, #48]	; 0x30
 80052d8:	4bc4      	ldr	r3, [pc, #784]	; (80055ec <__ieee754_pow+0x72c>)
 80052da:	4413      	add	r3, r2
 80052dc:	ed93 7b00 	vldr	d7, [r3]
 80052e0:	4629      	mov	r1, r5
 80052e2:	ec53 2b17 	vmov	r2, r3, d7
 80052e6:	ed8d 7b06 	vstr	d7, [sp, #24]
 80052ea:	e9cd 010a 	strd	r0, r1, [sp, #40]	; 0x28
 80052ee:	f7fa ff7f 	bl	80001f0 <__aeabi_dsub>
 80052f2:	e9dd 230a 	ldrd	r2, r3, [sp, #40]	; 0x28
 80052f6:	4606      	mov	r6, r0
 80052f8:	460f      	mov	r7, r1
 80052fa:	e9dd 0106 	ldrd	r0, r1, [sp, #24]
 80052fe:	f7fa ff79 	bl	80001f4 <__adddf3>
 8005302:	4602      	mov	r2, r0
 8005304:	460b      	mov	r3, r1
 8005306:	2000      	movs	r0, #0
 8005308:	49b9      	ldr	r1, [pc, #740]	; (80055f0 <__ieee754_pow+0x730>)
 800530a:	f7fb fa53 	bl	80007b4 <__aeabi_ddiv>
 800530e:	e9cd 010e 	strd	r0, r1, [sp, #56]	; 0x38
 8005312:	4602      	mov	r2, r0
 8005314:	460b      	mov	r3, r1
 8005316:	4630      	mov	r0, r6
 8005318:	4639      	mov	r1, r7
 800531a:	f7fb f921 	bl	8000560 <__aeabi_dmul>
 800531e:	e9cd 0104 	strd	r0, r1, [sp, #16]
 8005322:	e9dd 3404 	ldrd	r3, r4, [sp, #16]
 8005326:	e9cd 3402 	strd	r3, r4, [sp, #8]
 800532a:	2300      	movs	r3, #0
 800532c:	9302      	str	r3, [sp, #8]
 800532e:	e9dd 8902 	ldrd	r8, r9, [sp, #8]
 8005332:	106d      	asrs	r5, r5, #1
 8005334:	f045 5500 	orr.w	r5, r5, #536870912	; 0x20000000
 8005338:	f505 2500 	add.w	r5, r5, #524288	; 0x80000
 800533c:	2200      	movs	r2, #0
 800533e:	eb05 438a 	add.w	r3, r5, sl, lsl #18
 8005342:	4640      	mov	r0, r8
 8005344:	4649      	mov	r1, r9
 8005346:	4614      	mov	r4, r2
 8005348:	461d      	mov	r5, r3
 800534a:	f7fb f909 	bl	8000560 <__aeabi_dmul>
 800534e:	4602      	mov	r2, r0
 8005350:	460b      	mov	r3, r1
 8005352:	4630      	mov	r0, r6
 8005354:	4639      	mov	r1, r7
 8005356:	f7fa ff4b 	bl	80001f0 <__aeabi_dsub>
 800535a:	e9dd 2306 	ldrd	r2, r3, [sp, #24]
 800535e:	4606      	mov	r6, r0
 8005360:	460f      	mov	r7, r1
 8005362:	4620      	mov	r0, r4
 8005364:	4629      	mov	r1, r5
 8005366:	f7fa ff43 	bl	80001f0 <__aeabi_dsub>
 800536a:	4602      	mov	r2, r0
 800536c:	460b      	mov	r3, r1
 800536e:	e9dd 010a 	ldrd	r0, r1, [sp, #40]	; 0x28
 8005372:	f7fa ff3d 	bl	80001f0 <__aeabi_dsub>
 8005376:	4642      	mov	r2, r8
 8005378:	464b      	mov	r3, r9
 800537a:	f7fb f8f1 	bl	8000560 <__aeabi_dmul>
 800537e:	4602      	mov	r2, r0
 8005380:	460b      	mov	r3, r1
 8005382:	4630      	mov	r0, r6
 8005384:	4639      	mov	r1, r7
 8005386:	f7fa ff33 	bl	80001f0 <__aeabi_dsub>
 800538a:	e9dd 230e 	ldrd	r2, r3, [sp, #56]	; 0x38
 800538e:	f7fb f8e7 	bl	8000560 <__aeabi_dmul>
 8005392:	e9dd 2304 	ldrd	r2, r3, [sp, #16]
 8005396:	e9cd 0106 	strd	r0, r1, [sp, #24]
 800539a:	4610      	mov	r0, r2
 800539c:	4619      	mov	r1, r3
 800539e:	f7fb f8df 	bl	8000560 <__aeabi_dmul>
 80053a2:	a37b      	add	r3, pc, #492	; (adr r3, 8005590 <__ieee754_pow+0x6d0>)
 80053a4:	e9d3 2300 	ldrd	r2, r3, [r3]
 80053a8:	4604      	mov	r4, r0
 80053aa:	460d      	mov	r5, r1
 80053ac:	f7fb f8d8 	bl	8000560 <__aeabi_dmul>
 80053b0:	a379      	add	r3, pc, #484	; (adr r3, 8005598 <__ieee754_pow+0x6d8>)
 80053b2:	e9d3 2300 	ldrd	r2, r3, [r3]
 80053b6:	f7fa ff1d 	bl	80001f4 <__adddf3>
 80053ba:	4622      	mov	r2, r4
 80053bc:	462b      	mov	r3, r5
 80053be:	f7fb f8cf 	bl	8000560 <__aeabi_dmul>
 80053c2:	a377      	add	r3, pc, #476	; (adr r3, 80055a0 <__ieee754_pow+0x6e0>)
 80053c4:	e9d3 2300 	ldrd	r2, r3, [r3]
 80053c8:	f7fa ff14 	bl	80001f4 <__adddf3>
 80053cc:	4622      	mov	r2, r4
 80053ce:	462b      	mov	r3, r5
 80053d0:	f7fb f8c6 	bl	8000560 <__aeabi_dmul>
 80053d4:	a374      	add	r3, pc, #464	; (adr r3, 80055a8 <__ieee754_pow+0x6e8>)
 80053d6:	e9d3 2300 	ldrd	r2, r3, [r3]
 80053da:	f7fa ff0b 	bl	80001f4 <__adddf3>
 80053de:	4622      	mov	r2, r4
 80053e0:	462b      	mov	r3, r5
 80053e2:	f7fb f8bd 	bl	8000560 <__aeabi_dmul>
 80053e6:	a372      	add	r3, pc, #456	; (adr r3, 80055b0 <__ieee754_pow+0x6f0>)
 80053e8:	e9d3 2300 	ldrd	r2, r3, [r3]
 80053ec:	f7fa ff02 	bl	80001f4 <__adddf3>
 80053f0:	4622      	mov	r2, r4
 80053f2:	462b      	mov	r3, r5
 80053f4:	f7fb f8b4 	bl	8000560 <__aeabi_dmul>
 80053f8:	a36f      	add	r3, pc, #444	; (adr r3, 80055b8 <__ieee754_pow+0x6f8>)
 80053fa:	e9d3 2300 	ldrd	r2, r3, [r3]
 80053fe:	f7fa fef9 	bl	80001f4 <__adddf3>
 8005402:	4622      	mov	r2, r4
 8005404:	4606      	mov	r6, r0
 8005406:	460f      	mov	r7, r1
 8005408:	462b      	mov	r3, r5
 800540a:	4620      	mov	r0, r4
 800540c:	4629      	mov	r1, r5
 800540e:	f7fb f8a7 	bl	8000560 <__aeabi_dmul>
 8005412:	4602      	mov	r2, r0
 8005414:	460b      	mov	r3, r1
 8005416:	4630      	mov	r0, r6
 8005418:	4639      	mov	r1, r7
 800541a:	f7fb f8a1 	bl	8000560 <__aeabi_dmul>
 800541e:	4642      	mov	r2, r8
 8005420:	4604      	mov	r4, r0
 8005422:	460d      	mov	r5, r1
 8005424:	464b      	mov	r3, r9
 8005426:	e9dd 0104 	ldrd	r0, r1, [sp, #16]
 800542a:	f7fa fee3 	bl	80001f4 <__adddf3>
 800542e:	e9dd 2306 	ldrd	r2, r3, [sp, #24]
 8005432:	f7fb f895 	bl	8000560 <__aeabi_dmul>
 8005436:	4622      	mov	r2, r4
 8005438:	462b      	mov	r3, r5
 800543a:	f7fa fedb 	bl	80001f4 <__adddf3>
 800543e:	4642      	mov	r2, r8
 8005440:	4606      	mov	r6, r0
 8005442:	460f      	mov	r7, r1
 8005444:	464b      	mov	r3, r9
 8005446:	4640      	mov	r0, r8
 8005448:	4649      	mov	r1, r9
 800544a:	f7fb f889 	bl	8000560 <__aeabi_dmul>
 800544e:	2200      	movs	r2, #0
 8005450:	4b68      	ldr	r3, [pc, #416]	; (80055f4 <__ieee754_pow+0x734>)
 8005452:	e9cd 010a 	strd	r0, r1, [sp, #40]	; 0x28
 8005456:	f7fa fecd 	bl	80001f4 <__adddf3>
 800545a:	4632      	mov	r2, r6
 800545c:	463b      	mov	r3, r7
 800545e:	f7fa fec9 	bl	80001f4 <__adddf3>
 8005462:	9802      	ldr	r0, [sp, #8]
 8005464:	460d      	mov	r5, r1
 8005466:	4604      	mov	r4, r0
 8005468:	4602      	mov	r2, r0
 800546a:	460b      	mov	r3, r1
 800546c:	4640      	mov	r0, r8
 800546e:	4649      	mov	r1, r9
 8005470:	f7fb f876 	bl	8000560 <__aeabi_dmul>
 8005474:	2200      	movs	r2, #0
 8005476:	4680      	mov	r8, r0
 8005478:	4689      	mov	r9, r1
 800547a:	4b5e      	ldr	r3, [pc, #376]	; (80055f4 <__ieee754_pow+0x734>)
 800547c:	4620      	mov	r0, r4
 800547e:	4629      	mov	r1, r5
 8005480:	f7fa feb6 	bl	80001f0 <__aeabi_dsub>
 8005484:	e9dd 230a 	ldrd	r2, r3, [sp, #40]	; 0x28
 8005488:	f7fa feb2 	bl	80001f0 <__aeabi_dsub>
 800548c:	4602      	mov	r2, r0
 800548e:	460b      	mov	r3, r1
 8005490:	4630      	mov	r0, r6
 8005492:	4639      	mov	r1, r7
 8005494:	f7fa feac 	bl	80001f0 <__aeabi_dsub>
 8005498:	e9dd 2304 	ldrd	r2, r3, [sp, #16]
 800549c:	f7fb f860 	bl	8000560 <__aeabi_dmul>
 80054a0:	4622      	mov	r2, r4
 80054a2:	4606      	mov	r6, r0
 80054a4:	460f      	mov	r7, r1
 80054a6:	462b      	mov	r3, r5
 80054a8:	e9dd 0106 	ldrd	r0, r1, [sp, #24]
 80054ac:	f7fb f858 	bl	8000560 <__aeabi_dmul>
 80054b0:	4602      	mov	r2, r0
 80054b2:	460b      	mov	r3, r1
 80054b4:	4630      	mov	r0, r6
 80054b6:	4639      	mov	r1, r7
 80054b8:	f7fa fe9c 	bl	80001f4 <__adddf3>
 80054bc:	4606      	mov	r6, r0
 80054be:	460f      	mov	r7, r1
 80054c0:	4602      	mov	r2, r0
 80054c2:	460b      	mov	r3, r1
 80054c4:	4640      	mov	r0, r8
 80054c6:	4649      	mov	r1, r9
 80054c8:	f7fa fe94 	bl	80001f4 <__adddf3>
 80054cc:	9802      	ldr	r0, [sp, #8]
 80054ce:	a33c      	add	r3, pc, #240	; (adr r3, 80055c0 <__ieee754_pow+0x700>)
 80054d0:	e9d3 2300 	ldrd	r2, r3, [r3]
 80054d4:	4604      	mov	r4, r0
 80054d6:	460d      	mov	r5, r1
 80054d8:	f7fb f842 	bl	8000560 <__aeabi_dmul>
 80054dc:	4642      	mov	r2, r8
 80054de:	e9cd 0106 	strd	r0, r1, [sp, #24]
 80054e2:	464b      	mov	r3, r9
 80054e4:	4620      	mov	r0, r4
 80054e6:	4629      	mov	r1, r5
 80054e8:	f7fa fe82 	bl	80001f0 <__aeabi_dsub>
 80054ec:	4602      	mov	r2, r0
 80054ee:	460b      	mov	r3, r1
 80054f0:	4630      	mov	r0, r6
 80054f2:	4639      	mov	r1, r7
 80054f4:	f7fa fe7c 	bl	80001f0 <__aeabi_dsub>
 80054f8:	a333      	add	r3, pc, #204	; (adr r3, 80055c8 <__ieee754_pow+0x708>)
 80054fa:	e9d3 2300 	ldrd	r2, r3, [r3]
 80054fe:	f7fb f82f 	bl	8000560 <__aeabi_dmul>
 8005502:	a333      	add	r3, pc, #204	; (adr r3, 80055d0 <__ieee754_pow+0x710>)
 8005504:	e9d3 2300 	ldrd	r2, r3, [r3]
 8005508:	4606      	mov	r6, r0
 800550a:	460f      	mov	r7, r1
 800550c:	4620      	mov	r0, r4
 800550e:	4629      	mov	r1, r5
 8005510:	f7fb f826 	bl	8000560 <__aeabi_dmul>
 8005514:	4602      	mov	r2, r0
 8005516:	460b      	mov	r3, r1
 8005518:	4630      	mov	r0, r6
 800551a:	4639      	mov	r1, r7
 800551c:	f7fa fe6a 	bl	80001f4 <__adddf3>
 8005520:	9a0c      	ldr	r2, [sp, #48]	; 0x30
 8005522:	4b35      	ldr	r3, [pc, #212]	; (80055f8 <__ieee754_pow+0x738>)
 8005524:	4413      	add	r3, r2
 8005526:	e9d3 2300 	ldrd	r2, r3, [r3]
 800552a:	f7fa fe63 	bl	80001f4 <__adddf3>
 800552e:	4604      	mov	r4, r0
 8005530:	9809      	ldr	r0, [sp, #36]	; 0x24
 8005532:	460d      	mov	r5, r1
 8005534:	f7fa ffaa 	bl	800048c <__aeabi_i2d>
 8005538:	9a0c      	ldr	r2, [sp, #48]	; 0x30
 800553a:	4b30      	ldr	r3, [pc, #192]	; (80055fc <__ieee754_pow+0x73c>)
 800553c:	4413      	add	r3, r2
 800553e:	e9d3 8900 	ldrd	r8, r9, [r3]
 8005542:	4606      	mov	r6, r0
 8005544:	460f      	mov	r7, r1
 8005546:	4622      	mov	r2, r4
 8005548:	462b      	mov	r3, r5
 800554a:	e9dd 0106 	ldrd	r0, r1, [sp, #24]
 800554e:	f7fa fe51 	bl	80001f4 <__adddf3>
 8005552:	4642      	mov	r2, r8
 8005554:	464b      	mov	r3, r9
 8005556:	f7fa fe4d 	bl	80001f4 <__adddf3>
 800555a:	4632      	mov	r2, r6
 800555c:	463b      	mov	r3, r7
 800555e:	f7fa fe49 	bl	80001f4 <__adddf3>
 8005562:	9802      	ldr	r0, [sp, #8]
 8005564:	4632      	mov	r2, r6
 8005566:	463b      	mov	r3, r7
 8005568:	e9cd 0104 	strd	r0, r1, [sp, #16]
 800556c:	f7fa fe40 	bl	80001f0 <__aeabi_dsub>
 8005570:	4642      	mov	r2, r8
 8005572:	464b      	mov	r3, r9
 8005574:	f7fa fe3c 	bl	80001f0 <__aeabi_dsub>
 8005578:	e9dd 2306 	ldrd	r2, r3, [sp, #24]
 800557c:	e607      	b.n	800518e <__ieee754_pow+0x2ce>
 800557e:	f04f 0a01 	mov.w	sl, #1
 8005582:	e6a5      	b.n	80052d0 <__ieee754_pow+0x410>
 8005584:	ed9f 7b14 	vldr	d7, [pc, #80]	; 80055d8 <__ieee754_pow+0x718>
 8005588:	e613      	b.n	80051b2 <__ieee754_pow+0x2f2>
 800558a:	bf00      	nop
 800558c:	f3af 8000 	nop.w
 8005590:	4a454eef 	.word	0x4a454eef
 8005594:	3fca7e28 	.word	0x3fca7e28
 8005598:	93c9db65 	.word	0x93c9db65
 800559c:	3fcd864a 	.word	0x3fcd864a
 80055a0:	a91d4101 	.word	0xa91d4101
 80055a4:	3fd17460 	.word	0x3fd17460
 80055a8:	518f264d 	.word	0x518f264d
 80055ac:	3fd55555 	.word	0x3fd55555
 80055b0:	db6fabff 	.word	0xdb6fabff
 80055b4:	3fdb6db6 	.word	0x3fdb6db6
 80055b8:	33333303 	.word	0x33333303
 80055bc:	3fe33333 	.word	0x3fe33333
 80055c0:	e0000000 	.word	0xe0000000
 80055c4:	3feec709 	.word	0x3feec709
 80055c8:	dc3a03fd 	.word	0xdc3a03fd
 80055cc:	3feec709 	.word	0x3feec709
 80055d0:	145b01f5 	.word	0x145b01f5
 80055d4:	be3e2fe0 	.word	0xbe3e2fe0
 80055d8:	00000000 	.word	0x00000000
 80055dc:	3ff00000 	.word	0x3ff00000
 80055e0:	43400000 	.word	0x43400000
 80055e4:	0003988e 	.word	0x0003988e
 80055e8:	000bb679 	.word	0x000bb679
 80055ec:	08006b00 	.word	0x08006b00
 80055f0:	3ff00000 	.word	0x3ff00000
 80055f4:	40080000 	.word	0x40080000
 80055f8:	08006b20 	.word	0x08006b20
 80055fc:	08006b10 	.word	0x08006b10
 8005600:	a3b4      	add	r3, pc, #720	; (adr r3, 80058d4 <__ieee754_pow+0xa14>)
 8005602:	e9d3 2300 	ldrd	r2, r3, [r3]
 8005606:	4640      	mov	r0, r8
 8005608:	4649      	mov	r1, r9
 800560a:	f7fa fdf3 	bl	80001f4 <__adddf3>
 800560e:	4622      	mov	r2, r4
 8005610:	e9cd 0104 	strd	r0, r1, [sp, #16]
 8005614:	462b      	mov	r3, r5
 8005616:	4630      	mov	r0, r6
 8005618:	4639      	mov	r1, r7
 800561a:	f7fa fde9 	bl	80001f0 <__aeabi_dsub>
 800561e:	4602      	mov	r2, r0
 8005620:	460b      	mov	r3, r1
 8005622:	e9dd 0104 	ldrd	r0, r1, [sp, #16]
 8005626:	f7fb fa2b 	bl	8000a80 <__aeabi_dcmpgt>
 800562a:	2800      	cmp	r0, #0
 800562c:	f47f adfe 	bne.w	800522c <__ieee754_pow+0x36c>
 8005630:	4aa3      	ldr	r2, [pc, #652]	; (80058c0 <__ieee754_pow+0xa00>)
 8005632:	f02b 4300 	bic.w	r3, fp, #2147483648	; 0x80000000
 8005636:	4293      	cmp	r3, r2
 8005638:	f340 810a 	ble.w	8005850 <__ieee754_pow+0x990>
 800563c:	151b      	asrs	r3, r3, #20
 800563e:	f44f 1a80 	mov.w	sl, #1048576	; 0x100000
 8005642:	f2a3 33fe 	subw	r3, r3, #1022	; 0x3fe
 8005646:	fa4a f303 	asr.w	r3, sl, r3
 800564a:	445b      	add	r3, fp
 800564c:	f3c3 520a 	ubfx	r2, r3, #20, #11
 8005650:	4e9c      	ldr	r6, [pc, #624]	; (80058c4 <__ieee754_pow+0xa04>)
 8005652:	f2a2 32ff 	subw	r2, r2, #1023	; 0x3ff
 8005656:	4116      	asrs	r6, r2
 8005658:	f3c3 0a13 	ubfx	sl, r3, #0, #20
 800565c:	2000      	movs	r0, #0
 800565e:	ea23 0106 	bic.w	r1, r3, r6
 8005662:	f1c2 0214 	rsb	r2, r2, #20
 8005666:	f44a 1a80 	orr.w	sl, sl, #1048576	; 0x100000
 800566a:	fa4a fa02 	asr.w	sl, sl, r2
 800566e:	f1bb 0f00 	cmp.w	fp, #0
 8005672:	4602      	mov	r2, r0
 8005674:	460b      	mov	r3, r1
 8005676:	4620      	mov	r0, r4
 8005678:	4629      	mov	r1, r5
 800567a:	bfb8      	it	lt
 800567c:	f1ca 0a00 	rsblt	sl, sl, #0
 8005680:	f7fa fdb6 	bl	80001f0 <__aeabi_dsub>
 8005684:	e9cd 0100 	strd	r0, r1, [sp]
 8005688:	4642      	mov	r2, r8
 800568a:	464b      	mov	r3, r9
 800568c:	e9dd 0100 	ldrd	r0, r1, [sp]
 8005690:	f7fa fdb0 	bl	80001f4 <__adddf3>
 8005694:	2000      	movs	r0, #0
 8005696:	a378      	add	r3, pc, #480	; (adr r3, 8005878 <__ieee754_pow+0x9b8>)
 8005698:	e9d3 2300 	ldrd	r2, r3, [r3]
 800569c:	4604      	mov	r4, r0
 800569e:	460d      	mov	r5, r1
 80056a0:	f7fa ff5e 	bl	8000560 <__aeabi_dmul>
 80056a4:	e9dd 2300 	ldrd	r2, r3, [sp]
 80056a8:	4606      	mov	r6, r0
 80056aa:	460f      	mov	r7, r1
 80056ac:	4620      	mov	r0, r4
 80056ae:	4629      	mov	r1, r5
 80056b0:	f7fa fd9e 	bl	80001f0 <__aeabi_dsub>
 80056b4:	4602      	mov	r2, r0
 80056b6:	460b      	mov	r3, r1
 80056b8:	4640      	mov	r0, r8
 80056ba:	4649      	mov	r1, r9
 80056bc:	f7fa fd98 	bl	80001f0 <__aeabi_dsub>
 80056c0:	a36f      	add	r3, pc, #444	; (adr r3, 8005880 <__ieee754_pow+0x9c0>)
 80056c2:	e9d3 2300 	ldrd	r2, r3, [r3]
 80056c6:	f7fa ff4b 	bl	8000560 <__aeabi_dmul>
 80056ca:	a36f      	add	r3, pc, #444	; (adr r3, 8005888 <__ieee754_pow+0x9c8>)
 80056cc:	e9d3 2300 	ldrd	r2, r3, [r3]
 80056d0:	4680      	mov	r8, r0
 80056d2:	4689      	mov	r9, r1
 80056d4:	4620      	mov	r0, r4
 80056d6:	4629      	mov	r1, r5
 80056d8:	f7fa ff42 	bl	8000560 <__aeabi_dmul>
 80056dc:	4602      	mov	r2, r0
 80056de:	460b      	mov	r3, r1
 80056e0:	4640      	mov	r0, r8
 80056e2:	4649      	mov	r1, r9
 80056e4:	f7fa fd86 	bl	80001f4 <__adddf3>
 80056e8:	4604      	mov	r4, r0
 80056ea:	460d      	mov	r5, r1
 80056ec:	4602      	mov	r2, r0
 80056ee:	460b      	mov	r3, r1
 80056f0:	4630      	mov	r0, r6
 80056f2:	4639      	mov	r1, r7
 80056f4:	f7fa fd7e 	bl	80001f4 <__adddf3>
 80056f8:	4632      	mov	r2, r6
 80056fa:	463b      	mov	r3, r7
 80056fc:	4680      	mov	r8, r0
 80056fe:	4689      	mov	r9, r1
 8005700:	f7fa fd76 	bl	80001f0 <__aeabi_dsub>
 8005704:	4602      	mov	r2, r0
 8005706:	460b      	mov	r3, r1
 8005708:	4620      	mov	r0, r4
 800570a:	4629      	mov	r1, r5
 800570c:	f7fa fd70 	bl	80001f0 <__aeabi_dsub>
 8005710:	4642      	mov	r2, r8
 8005712:	4606      	mov	r6, r0
 8005714:	460f      	mov	r7, r1
 8005716:	464b      	mov	r3, r9
 8005718:	4640      	mov	r0, r8
 800571a:	4649      	mov	r1, r9
 800571c:	f7fa ff20 	bl	8000560 <__aeabi_dmul>
 8005720:	a35b      	add	r3, pc, #364	; (adr r3, 8005890 <__ieee754_pow+0x9d0>)
 8005722:	e9d3 2300 	ldrd	r2, r3, [r3]
 8005726:	4604      	mov	r4, r0
 8005728:	460d      	mov	r5, r1
 800572a:	f7fa ff19 	bl	8000560 <__aeabi_dmul>
 800572e:	a35a      	add	r3, pc, #360	; (adr r3, 8005898 <__ieee754_pow+0x9d8>)
 8005730:	e9d3 2300 	ldrd	r2, r3, [r3]
 8005734:	f7fa fd5c 	bl	80001f0 <__aeabi_dsub>
 8005738:	4622      	mov	r2, r4
 800573a:	462b      	mov	r3, r5
 800573c:	f7fa ff10 	bl	8000560 <__aeabi_dmul>
 8005740:	a357      	add	r3, pc, #348	; (adr r3, 80058a0 <__ieee754_pow+0x9e0>)
 8005742:	e9d3 2300 	ldrd	r2, r3, [r3]
 8005746:	f7fa fd55 	bl	80001f4 <__adddf3>
 800574a:	4622      	mov	r2, r4
 800574c:	462b      	mov	r3, r5
 800574e:	f7fa ff07 	bl	8000560 <__aeabi_dmul>
 8005752:	a355      	add	r3, pc, #340	; (adr r3, 80058a8 <__ieee754_pow+0x9e8>)
 8005754:	e9d3 2300 	ldrd	r2, r3, [r3]
 8005758:	f7fa fd4a 	bl	80001f0 <__aeabi_dsub>
 800575c:	4622      	mov	r2, r4
 800575e:	462b      	mov	r3, r5
 8005760:	f7fa fefe 	bl	8000560 <__aeabi_dmul>
 8005764:	a352      	add	r3, pc, #328	; (adr r3, 80058b0 <__ieee754_pow+0x9f0>)
 8005766:	e9d3 2300 	ldrd	r2, r3, [r3]
 800576a:	f7fa fd43 	bl	80001f4 <__adddf3>
 800576e:	4622      	mov	r2, r4
 8005770:	462b      	mov	r3, r5
 8005772:	f7fa fef5 	bl	8000560 <__aeabi_dmul>
 8005776:	4602      	mov	r2, r0
 8005778:	460b      	mov	r3, r1
 800577a:	4640      	mov	r0, r8
 800577c:	4649      	mov	r1, r9
 800577e:	f7fa fd37 	bl	80001f0 <__aeabi_dsub>
 8005782:	4604      	mov	r4, r0
 8005784:	460d      	mov	r5, r1
 8005786:	4602      	mov	r2, r0
 8005788:	460b      	mov	r3, r1
 800578a:	4640      	mov	r0, r8
 800578c:	4649      	mov	r1, r9
 800578e:	f7fa fee7 	bl	8000560 <__aeabi_dmul>
 8005792:	2200      	movs	r2, #0
 8005794:	e9cd 0100 	strd	r0, r1, [sp]
 8005798:	f04f 4380 	mov.w	r3, #1073741824	; 0x40000000
 800579c:	4620      	mov	r0, r4
 800579e:	4629      	mov	r1, r5
 80057a0:	f7fa fd26 	bl	80001f0 <__aeabi_dsub>
 80057a4:	4602      	mov	r2, r0
 80057a6:	460b      	mov	r3, r1
 80057a8:	e9dd 0100 	ldrd	r0, r1, [sp]
 80057ac:	f7fb f802 	bl	80007b4 <__aeabi_ddiv>
 80057b0:	4632      	mov	r2, r6
 80057b2:	4604      	mov	r4, r0
 80057b4:	460d      	mov	r5, r1
 80057b6:	463b      	mov	r3, r7
 80057b8:	4640      	mov	r0, r8
 80057ba:	4649      	mov	r1, r9
 80057bc:	f7fa fed0 	bl	8000560 <__aeabi_dmul>
 80057c0:	4632      	mov	r2, r6
 80057c2:	463b      	mov	r3, r7
 80057c4:	f7fa fd16 	bl	80001f4 <__adddf3>
 80057c8:	4602      	mov	r2, r0
 80057ca:	460b      	mov	r3, r1
 80057cc:	4620      	mov	r0, r4
 80057ce:	4629      	mov	r1, r5
 80057d0:	f7fa fd0e 	bl	80001f0 <__aeabi_dsub>
 80057d4:	4642      	mov	r2, r8
 80057d6:	464b      	mov	r3, r9
 80057d8:	f7fa fd0a 	bl	80001f0 <__aeabi_dsub>
 80057dc:	4602      	mov	r2, r0
 80057de:	460b      	mov	r3, r1
 80057e0:	2000      	movs	r0, #0
 80057e2:	4939      	ldr	r1, [pc, #228]	; (80058c8 <__ieee754_pow+0xa08>)
 80057e4:	f7fa fd04 	bl	80001f0 <__aeabi_dsub>
 80057e8:	eb01 540a 	add.w	r4, r1, sl, lsl #20
 80057ec:	f5b4 1f80 	cmp.w	r4, #1048576	; 0x100000
 80057f0:	4602      	mov	r2, r0
 80057f2:	460b      	mov	r3, r1
 80057f4:	da2f      	bge.n	8005856 <__ieee754_pow+0x996>
 80057f6:	4650      	mov	r0, sl
 80057f8:	ec43 2b10 	vmov	d0, r2, r3
 80057fc:	f000 f9c0 	bl	8005b80 <scalbn>
 8005800:	ec51 0b10 	vmov	r0, r1, d0
 8005804:	e9dd 2302 	ldrd	r2, r3, [sp, #8]
 8005808:	f7ff bbf1 	b.w	8004fee <__ieee754_pow+0x12e>
 800580c:	4b2f      	ldr	r3, [pc, #188]	; (80058cc <__ieee754_pow+0xa0c>)
 800580e:	f021 4600 	bic.w	r6, r1, #2147483648	; 0x80000000
 8005812:	429e      	cmp	r6, r3
 8005814:	f77f af0c 	ble.w	8005630 <__ieee754_pow+0x770>
 8005818:	4b2d      	ldr	r3, [pc, #180]	; (80058d0 <__ieee754_pow+0xa10>)
 800581a:	440b      	add	r3, r1
 800581c:	4303      	orrs	r3, r0
 800581e:	d00b      	beq.n	8005838 <__ieee754_pow+0x978>
 8005820:	a325      	add	r3, pc, #148	; (adr r3, 80058b8 <__ieee754_pow+0x9f8>)
 8005822:	e9d3 2300 	ldrd	r2, r3, [r3]
 8005826:	e9dd 0102 	ldrd	r0, r1, [sp, #8]
 800582a:	f7fa fe99 	bl	8000560 <__aeabi_dmul>
 800582e:	a322      	add	r3, pc, #136	; (adr r3, 80058b8 <__ieee754_pow+0x9f8>)
 8005830:	e9d3 2300 	ldrd	r2, r3, [r3]
 8005834:	f7ff bbdb 	b.w	8004fee <__ieee754_pow+0x12e>
 8005838:	4622      	mov	r2, r4
 800583a:	462b      	mov	r3, r5
 800583c:	f7fa fcd8 	bl	80001f0 <__aeabi_dsub>
 8005840:	4642      	mov	r2, r8
 8005842:	464b      	mov	r3, r9
 8005844:	f7fb f912 	bl	8000a6c <__aeabi_dcmpge>
 8005848:	2800      	cmp	r0, #0
 800584a:	f43f aef1 	beq.w	8005630 <__ieee754_pow+0x770>
 800584e:	e7e7      	b.n	8005820 <__ieee754_pow+0x960>
 8005850:	f04f 0a00 	mov.w	sl, #0
 8005854:	e718      	b.n	8005688 <__ieee754_pow+0x7c8>
 8005856:	4621      	mov	r1, r4
 8005858:	e7d4      	b.n	8005804 <__ieee754_pow+0x944>
 800585a:	2000      	movs	r0, #0
 800585c:	491a      	ldr	r1, [pc, #104]	; (80058c8 <__ieee754_pow+0xa08>)
 800585e:	f7ff bb8f 	b.w	8004f80 <__ieee754_pow+0xc0>
 8005862:	e9dd 0100 	ldrd	r0, r1, [sp]
 8005866:	f7ff bb8b 	b.w	8004f80 <__ieee754_pow+0xc0>
 800586a:	4630      	mov	r0, r6
 800586c:	4639      	mov	r1, r7
 800586e:	f7ff bb87 	b.w	8004f80 <__ieee754_pow+0xc0>
 8005872:	4693      	mov	fp, r2
 8005874:	f7ff bb98 	b.w	8004fa8 <__ieee754_pow+0xe8>
 8005878:	00000000 	.word	0x00000000
 800587c:	3fe62e43 	.word	0x3fe62e43
 8005880:	fefa39ef 	.word	0xfefa39ef
 8005884:	3fe62e42 	.word	0x3fe62e42
 8005888:	0ca86c39 	.word	0x0ca86c39
 800588c:	be205c61 	.word	0xbe205c61
 8005890:	72bea4d0 	.word	0x72bea4d0
 8005894:	3e663769 	.word	0x3e663769
 8005898:	c5d26bf1 	.word	0xc5d26bf1
 800589c:	3ebbbd41 	.word	0x3ebbbd41
 80058a0:	af25de2c 	.word	0xaf25de2c
 80058a4:	3f11566a 	.word	0x3f11566a
 80058a8:	16bebd93 	.word	0x16bebd93
 80058ac:	3f66c16c 	.word	0x3f66c16c
 80058b0:	5555553e 	.word	0x5555553e
 80058b4:	3fc55555 	.word	0x3fc55555
 80058b8:	c2f8f359 	.word	0xc2f8f359
 80058bc:	01a56e1f 	.word	0x01a56e1f
 80058c0:	3fe00000 	.word	0x3fe00000
 80058c4:	000fffff 	.word	0x000fffff
 80058c8:	3ff00000 	.word	0x3ff00000
 80058cc:	4090cbff 	.word	0x4090cbff
 80058d0:	3f6f3400 	.word	0x3f6f3400
 80058d4:	652b82fe 	.word	0x652b82fe
 80058d8:	3c971547 	.word	0x3c971547

080058dc <__ieee754_sqrt>:
 80058dc:	e92d 41f0 	stmdb	sp!, {r4, r5, r6, r7, r8, lr}
 80058e0:	4955      	ldr	r1, [pc, #340]	; (8005a38 <__ieee754_sqrt+0x15c>)
 80058e2:	ec55 4b10 	vmov	r4, r5, d0
 80058e6:	43a9      	bics	r1, r5
 80058e8:	462b      	mov	r3, r5
 80058ea:	462a      	mov	r2, r5
 80058ec:	d112      	bne.n	8005914 <__ieee754_sqrt+0x38>
 80058ee:	ee10 2a10 	vmov	r2, s0
 80058f2:	ee10 0a10 	vmov	r0, s0
 80058f6:	4629      	mov	r1, r5
 80058f8:	f7fa fe32 	bl	8000560 <__aeabi_dmul>
 80058fc:	4602      	mov	r2, r0
 80058fe:	460b      	mov	r3, r1
 8005900:	4620      	mov	r0, r4
 8005902:	4629      	mov	r1, r5
 8005904:	f7fa fc76 	bl	80001f4 <__adddf3>
 8005908:	4604      	mov	r4, r0
 800590a:	460d      	mov	r5, r1
 800590c:	ec45 4b10 	vmov	d0, r4, r5
 8005910:	e8bd 81f0 	ldmia.w	sp!, {r4, r5, r6, r7, r8, pc}
 8005914:	2d00      	cmp	r5, #0
 8005916:	ee10 0a10 	vmov	r0, s0
 800591a:	4621      	mov	r1, r4
 800591c:	dc0f      	bgt.n	800593e <__ieee754_sqrt+0x62>
 800591e:	f025 4600 	bic.w	r6, r5, #2147483648	; 0x80000000
 8005922:	4330      	orrs	r0, r6
 8005924:	d0f2      	beq.n	800590c <__ieee754_sqrt+0x30>
 8005926:	b155      	cbz	r5, 800593e <__ieee754_sqrt+0x62>
 8005928:	ee10 2a10 	vmov	r2, s0
 800592c:	4620      	mov	r0, r4
 800592e:	4629      	mov	r1, r5
 8005930:	f7fa fc5e 	bl	80001f0 <__aeabi_dsub>
 8005934:	4602      	mov	r2, r0
 8005936:	460b      	mov	r3, r1
 8005938:	f7fa ff3c 	bl	80007b4 <__aeabi_ddiv>
 800593c:	e7e4      	b.n	8005908 <__ieee754_sqrt+0x2c>
 800593e:	151b      	asrs	r3, r3, #20
 8005940:	d073      	beq.n	8005a2a <__ieee754_sqrt+0x14e>
 8005942:	f2a3 33ff 	subw	r3, r3, #1023	; 0x3ff
 8005946:	07dd      	lsls	r5, r3, #31
 8005948:	f3c2 0213 	ubfx	r2, r2, #0, #20
 800594c:	bf48      	it	mi
 800594e:	0fc8      	lsrmi	r0, r1, #31
 8005950:	f442 1280 	orr.w	r2, r2, #1048576	; 0x100000
 8005954:	bf44      	itt	mi
 8005956:	0049      	lslmi	r1, r1, #1
 8005958:	eb00 0242 	addmi.w	r2, r0, r2, lsl #1
 800595c:	2500      	movs	r5, #0
 800595e:	1058      	asrs	r0, r3, #1
 8005960:	0fcb      	lsrs	r3, r1, #31
 8005962:	eb03 0242 	add.w	r2, r3, r2, lsl #1
 8005966:	0049      	lsls	r1, r1, #1
 8005968:	2316      	movs	r3, #22
 800596a:	462c      	mov	r4, r5
 800596c:	f44f 1600 	mov.w	r6, #2097152	; 0x200000
 8005970:	19a7      	adds	r7, r4, r6
 8005972:	4297      	cmp	r7, r2
 8005974:	bfde      	ittt	le
 8005976:	19bc      	addle	r4, r7, r6
 8005978:	1bd2      	suble	r2, r2, r7
 800597a:	19ad      	addle	r5, r5, r6
 800597c:	0fcf      	lsrs	r7, r1, #31
 800597e:	3b01      	subs	r3, #1
 8005980:	eb07 0242 	add.w	r2, r7, r2, lsl #1
 8005984:	ea4f 0141 	mov.w	r1, r1, lsl #1
 8005988:	ea4f 0656 	mov.w	r6, r6, lsr #1
 800598c:	d1f0      	bne.n	8005970 <__ieee754_sqrt+0x94>
 800598e:	f04f 0c20 	mov.w	ip, #32
 8005992:	469e      	mov	lr, r3
 8005994:	f04f 4600 	mov.w	r6, #2147483648	; 0x80000000
 8005998:	42a2      	cmp	r2, r4
 800599a:	eb06 070e 	add.w	r7, r6, lr
 800599e:	dc02      	bgt.n	80059a6 <__ieee754_sqrt+0xca>
 80059a0:	d112      	bne.n	80059c8 <__ieee754_sqrt+0xec>
 80059a2:	428f      	cmp	r7, r1
 80059a4:	d810      	bhi.n	80059c8 <__ieee754_sqrt+0xec>
 80059a6:	2f00      	cmp	r7, #0
 80059a8:	eb07 0e06 	add.w	lr, r7, r6
 80059ac:	da42      	bge.n	8005a34 <__ieee754_sqrt+0x158>
 80059ae:	f1be 0f00 	cmp.w	lr, #0
 80059b2:	db3f      	blt.n	8005a34 <__ieee754_sqrt+0x158>
 80059b4:	f104 0801 	add.w	r8, r4, #1
 80059b8:	1b12      	subs	r2, r2, r4
 80059ba:	428f      	cmp	r7, r1
 80059bc:	bf88      	it	hi
 80059be:	f102 32ff 	addhi.w	r2, r2, #4294967295
 80059c2:	1bc9      	subs	r1, r1, r7
 80059c4:	4433      	add	r3, r6
 80059c6:	4644      	mov	r4, r8
 80059c8:	0052      	lsls	r2, r2, #1
 80059ca:	f1bc 0c01 	subs.w	ip, ip, #1
 80059ce:	eb02 72d1 	add.w	r2, r2, r1, lsr #31
 80059d2:	ea4f 0656 	mov.w	r6, r6, lsr #1
 80059d6:	ea4f 0141 	mov.w	r1, r1, lsl #1
 80059da:	d1dd      	bne.n	8005998 <__ieee754_sqrt+0xbc>
 80059dc:	430a      	orrs	r2, r1
 80059de:	d006      	beq.n	80059ee <__ieee754_sqrt+0x112>
 80059e0:	1c5c      	adds	r4, r3, #1
 80059e2:	bf13      	iteet	ne
 80059e4:	3301      	addne	r3, #1
 80059e6:	3501      	addeq	r5, #1
 80059e8:	4663      	moveq	r3, ip
 80059ea:	f023 0301 	bicne.w	r3, r3, #1
 80059ee:	106a      	asrs	r2, r5, #1
 80059f0:	085b      	lsrs	r3, r3, #1
 80059f2:	07e9      	lsls	r1, r5, #31
 80059f4:	f102 527f 	add.w	r2, r2, #1069547520	; 0x3fc00000
 80059f8:	f502 1200 	add.w	r2, r2, #2097152	; 0x200000
 80059fc:	bf48      	it	mi
 80059fe:	f043 4300 	orrmi.w	r3, r3, #2147483648	; 0x80000000
 8005a02:	eb02 5500 	add.w	r5, r2, r0, lsl #20
 8005a06:	461c      	mov	r4, r3
 8005a08:	e780      	b.n	800590c <__ieee754_sqrt+0x30>
 8005a0a:	0aca      	lsrs	r2, r1, #11
 8005a0c:	3815      	subs	r0, #21
 8005a0e:	0549      	lsls	r1, r1, #21
 8005a10:	2a00      	cmp	r2, #0
 8005a12:	d0fa      	beq.n	8005a0a <__ieee754_sqrt+0x12e>
 8005a14:	02d6      	lsls	r6, r2, #11
 8005a16:	d50a      	bpl.n	8005a2e <__ieee754_sqrt+0x152>
 8005a18:	f1c3 0420 	rsb	r4, r3, #32
 8005a1c:	fa21 f404 	lsr.w	r4, r1, r4
 8005a20:	1e5d      	subs	r5, r3, #1
 8005a22:	4099      	lsls	r1, r3
 8005a24:	4322      	orrs	r2, r4
 8005a26:	1b43      	subs	r3, r0, r5
 8005a28:	e78b      	b.n	8005942 <__ieee754_sqrt+0x66>
 8005a2a:	4618      	mov	r0, r3
 8005a2c:	e7f0      	b.n	8005a10 <__ieee754_sqrt+0x134>
 8005a2e:	0052      	lsls	r2, r2, #1
 8005a30:	3301      	adds	r3, #1
 8005a32:	e7ef      	b.n	8005a14 <__ieee754_sqrt+0x138>
 8005a34:	46a0      	mov	r8, r4
 8005a36:	e7bf      	b.n	80059b8 <__ieee754_sqrt+0xdc>
 8005a38:	7ff00000 	.word	0x7ff00000

08005a3c <fabs>:
 8005a3c:	ec51 0b10 	vmov	r0, r1, d0
 8005a40:	ee10 2a10 	vmov	r2, s0
 8005a44:	f021 4300 	bic.w	r3, r1, #2147483648	; 0x80000000
 8005a48:	ec43 2b10 	vmov	d0, r2, r3
 8005a4c:	4770      	bx	lr

08005a4e <finite>:
 8005a4e:	ee10 3a90 	vmov	r3, s1
 8005a52:	f043 4000 	orr.w	r0, r3, #2147483648	; 0x80000000
 8005a56:	f500 1080 	add.w	r0, r0, #1048576	; 0x100000
 8005a5a:	0fc0      	lsrs	r0, r0, #31
 8005a5c:	4770      	bx	lr

08005a5e <matherr>:
 8005a5e:	2000      	movs	r0, #0
 8005a60:	4770      	bx	lr
 8005a62:	0000      	movs	r0, r0
 8005a64:	0000      	movs	r0, r0
	...

08005a68 <nan>:
 8005a68:	ed9f 0b01 	vldr	d0, [pc, #4]	; 8005a70 <nan+0x8>
 8005a6c:	4770      	bx	lr
 8005a6e:	bf00      	nop
 8005a70:	00000000 	.word	0x00000000
 8005a74:	7ff80000 	.word	0x7ff80000

08005a78 <rint>:
 8005a78:	b5f7      	push	{r0, r1, r2, r4, r5, r6, r7, lr}
 8005a7a:	ec51 0b10 	vmov	r0, r1, d0
 8005a7e:	f3c1 520a 	ubfx	r2, r1, #20, #11
 8005a82:	f2a2 36ff 	subw	r6, r2, #1023	; 0x3ff
 8005a86:	2e13      	cmp	r6, #19
 8005a88:	460b      	mov	r3, r1
 8005a8a:	ee10 4a10 	vmov	r4, s0
 8005a8e:	ea4f 75d1 	mov.w	r5, r1, lsr #31
 8005a92:	dc56      	bgt.n	8005b42 <rint+0xca>
 8005a94:	2e00      	cmp	r6, #0
 8005a96:	da2b      	bge.n	8005af0 <rint+0x78>
 8005a98:	f021 4200 	bic.w	r2, r1, #2147483648	; 0x80000000
 8005a9c:	4302      	orrs	r2, r0
 8005a9e:	d023      	beq.n	8005ae8 <rint+0x70>
 8005aa0:	f3c1 0213 	ubfx	r2, r1, #0, #20
 8005aa4:	4302      	orrs	r2, r0
 8005aa6:	4254      	negs	r4, r2
 8005aa8:	4314      	orrs	r4, r2
 8005aaa:	0c4b      	lsrs	r3, r1, #17
 8005aac:	0b24      	lsrs	r4, r4, #12
 8005aae:	045b      	lsls	r3, r3, #17
 8005ab0:	f404 2400 	and.w	r4, r4, #524288	; 0x80000
 8005ab4:	ea44 0103 	orr.w	r1, r4, r3
 8005ab8:	460b      	mov	r3, r1
 8005aba:	492f      	ldr	r1, [pc, #188]	; (8005b78 <rint+0x100>)
 8005abc:	eb01 01c5 	add.w	r1, r1, r5, lsl #3
 8005ac0:	e9d1 6700 	ldrd	r6, r7, [r1]
 8005ac4:	4602      	mov	r2, r0
 8005ac6:	4639      	mov	r1, r7
 8005ac8:	4630      	mov	r0, r6
 8005aca:	f7fa fb93 	bl	80001f4 <__adddf3>
 8005ace:	e9cd 0100 	strd	r0, r1, [sp]
 8005ad2:	463b      	mov	r3, r7
 8005ad4:	4632      	mov	r2, r6
 8005ad6:	e9dd 0100 	ldrd	r0, r1, [sp]
 8005ada:	f7fa fb89 	bl	80001f0 <__aeabi_dsub>
 8005ade:	f021 4300 	bic.w	r3, r1, #2147483648	; 0x80000000
 8005ae2:	ea43 77c5 	orr.w	r7, r3, r5, lsl #31
 8005ae6:	4639      	mov	r1, r7
 8005ae8:	ec41 0b10 	vmov	d0, r0, r1
 8005aec:	b003      	add	sp, #12
 8005aee:	bdf0      	pop	{r4, r5, r6, r7, pc}
 8005af0:	4a22      	ldr	r2, [pc, #136]	; (8005b7c <rint+0x104>)
 8005af2:	4132      	asrs	r2, r6
 8005af4:	ea01 0702 	and.w	r7, r1, r2
 8005af8:	4307      	orrs	r7, r0
 8005afa:	d0f5      	beq.n	8005ae8 <rint+0x70>
 8005afc:	0852      	lsrs	r2, r2, #1
 8005afe:	4011      	ands	r1, r2
 8005b00:	430c      	orrs	r4, r1
 8005b02:	d00b      	beq.n	8005b1c <rint+0xa4>
 8005b04:	ea23 0202 	bic.w	r2, r3, r2
 8005b08:	f44f 2380 	mov.w	r3, #262144	; 0x40000
 8005b0c:	2e13      	cmp	r6, #19
 8005b0e:	fa43 f306 	asr.w	r3, r3, r6
 8005b12:	bf0c      	ite	eq
 8005b14:	f04f 4400 	moveq.w	r4, #2147483648	; 0x80000000
 8005b18:	2400      	movne	r4, #0
 8005b1a:	4313      	orrs	r3, r2
 8005b1c:	4916      	ldr	r1, [pc, #88]	; (8005b78 <rint+0x100>)
 8005b1e:	eb01 05c5 	add.w	r5, r1, r5, lsl #3
 8005b22:	4622      	mov	r2, r4
 8005b24:	e9d5 4500 	ldrd	r4, r5, [r5]
 8005b28:	4620      	mov	r0, r4
 8005b2a:	4629      	mov	r1, r5
 8005b2c:	f7fa fb62 	bl	80001f4 <__adddf3>
 8005b30:	e9cd 0100 	strd	r0, r1, [sp]
 8005b34:	4622      	mov	r2, r4
 8005b36:	462b      	mov	r3, r5
 8005b38:	e9dd 0100 	ldrd	r0, r1, [sp]
 8005b3c:	f7fa fb58 	bl	80001f0 <__aeabi_dsub>
 8005b40:	e7d2      	b.n	8005ae8 <rint+0x70>
 8005b42:	2e33      	cmp	r6, #51	; 0x33
 8005b44:	dd07      	ble.n	8005b56 <rint+0xde>
 8005b46:	f5b6 6f80 	cmp.w	r6, #1024	; 0x400
 8005b4a:	d1cd      	bne.n	8005ae8 <rint+0x70>
 8005b4c:	ee10 2a10 	vmov	r2, s0
 8005b50:	f7fa fb50 	bl	80001f4 <__adddf3>
 8005b54:	e7c8      	b.n	8005ae8 <rint+0x70>
 8005b56:	f2a2 4613 	subw	r6, r2, #1043	; 0x413
 8005b5a:	f04f 32ff 	mov.w	r2, #4294967295
 8005b5e:	40f2      	lsrs	r2, r6
 8005b60:	4210      	tst	r0, r2
 8005b62:	d0c1      	beq.n	8005ae8 <rint+0x70>
 8005b64:	0852      	lsrs	r2, r2, #1
 8005b66:	4210      	tst	r0, r2
 8005b68:	bf1f      	itttt	ne
 8005b6a:	f04f 4480 	movne.w	r4, #1073741824	; 0x40000000
 8005b6e:	ea20 0202 	bicne.w	r2, r0, r2
 8005b72:	4134      	asrne	r4, r6
 8005b74:	4314      	orrne	r4, r2
 8005b76:	e7d1      	b.n	8005b1c <rint+0xa4>
 8005b78:	08006b30 	.word	0x08006b30
 8005b7c:	000fffff 	.word	0x000fffff

08005b80 <scalbn>:
 8005b80:	b570      	push	{r4, r5, r6, lr}
 8005b82:	ec55 4b10 	vmov	r4, r5, d0
 8005b86:	f3c5 520a 	ubfx	r2, r5, #20, #11
 8005b8a:	4606      	mov	r6, r0
 8005b8c:	462b      	mov	r3, r5
 8005b8e:	b9aa      	cbnz	r2, 8005bbc <scalbn+0x3c>
 8005b90:	f025 4300 	bic.w	r3, r5, #2147483648	; 0x80000000
 8005b94:	4323      	orrs	r3, r4
 8005b96:	d03b      	beq.n	8005c10 <scalbn+0x90>
 8005b98:	4b31      	ldr	r3, [pc, #196]	; (8005c60 <scalbn+0xe0>)
 8005b9a:	4629      	mov	r1, r5
 8005b9c:	2200      	movs	r2, #0
 8005b9e:	ee10 0a10 	vmov	r0, s0
 8005ba2:	f7fa fcdd 	bl	8000560 <__aeabi_dmul>
 8005ba6:	4b2f      	ldr	r3, [pc, #188]	; (8005c64 <scalbn+0xe4>)
 8005ba8:	429e      	cmp	r6, r3
 8005baa:	4604      	mov	r4, r0
 8005bac:	460d      	mov	r5, r1
 8005bae:	da12      	bge.n	8005bd6 <scalbn+0x56>
 8005bb0:	a327      	add	r3, pc, #156	; (adr r3, 8005c50 <scalbn+0xd0>)
 8005bb2:	e9d3 2300 	ldrd	r2, r3, [r3]
 8005bb6:	f7fa fcd3 	bl	8000560 <__aeabi_dmul>
 8005bba:	e009      	b.n	8005bd0 <scalbn+0x50>
 8005bbc:	f240 71ff 	movw	r1, #2047	; 0x7ff
 8005bc0:	428a      	cmp	r2, r1
 8005bc2:	d10c      	bne.n	8005bde <scalbn+0x5e>
 8005bc4:	ee10 2a10 	vmov	r2, s0
 8005bc8:	4620      	mov	r0, r4
 8005bca:	4629      	mov	r1, r5
 8005bcc:	f7fa fb12 	bl	80001f4 <__adddf3>
 8005bd0:	4604      	mov	r4, r0
 8005bd2:	460d      	mov	r5, r1
 8005bd4:	e01c      	b.n	8005c10 <scalbn+0x90>
 8005bd6:	f3c1 520a 	ubfx	r2, r1, #20, #11
 8005bda:	460b      	mov	r3, r1
 8005bdc:	3a36      	subs	r2, #54	; 0x36
 8005bde:	4432      	add	r2, r6
 8005be0:	f240 71fe 	movw	r1, #2046	; 0x7fe
 8005be4:	428a      	cmp	r2, r1
 8005be6:	dd0b      	ble.n	8005c00 <scalbn+0x80>
 8005be8:	ec45 4b11 	vmov	d1, r4, r5
 8005bec:	ed9f 0b1a 	vldr	d0, [pc, #104]	; 8005c58 <scalbn+0xd8>
 8005bf0:	f000 f83c 	bl	8005c6c <copysign>
 8005bf4:	a318      	add	r3, pc, #96	; (adr r3, 8005c58 <scalbn+0xd8>)
 8005bf6:	e9d3 2300 	ldrd	r2, r3, [r3]
 8005bfa:	ec51 0b10 	vmov	r0, r1, d0
 8005bfe:	e7da      	b.n	8005bb6 <scalbn+0x36>
 8005c00:	2a00      	cmp	r2, #0
 8005c02:	dd08      	ble.n	8005c16 <scalbn+0x96>
 8005c04:	f023 43ff 	bic.w	r3, r3, #2139095040	; 0x7f800000
 8005c08:	f423 03e0 	bic.w	r3, r3, #7340032	; 0x700000
 8005c0c:	ea43 5502 	orr.w	r5, r3, r2, lsl #20
 8005c10:	ec45 4b10 	vmov	d0, r4, r5
 8005c14:	bd70      	pop	{r4, r5, r6, pc}
 8005c16:	f112 0f35 	cmn.w	r2, #53	; 0x35
 8005c1a:	da0d      	bge.n	8005c38 <scalbn+0xb8>
 8005c1c:	f24c 3350 	movw	r3, #50000	; 0xc350
 8005c20:	429e      	cmp	r6, r3
 8005c22:	ec45 4b11 	vmov	d1, r4, r5
 8005c26:	dce1      	bgt.n	8005bec <scalbn+0x6c>
 8005c28:	ed9f 0b09 	vldr	d0, [pc, #36]	; 8005c50 <scalbn+0xd0>
 8005c2c:	f000 f81e 	bl	8005c6c <copysign>
 8005c30:	a307      	add	r3, pc, #28	; (adr r3, 8005c50 <scalbn+0xd0>)
 8005c32:	e9d3 2300 	ldrd	r2, r3, [r3]
 8005c36:	e7e0      	b.n	8005bfa <scalbn+0x7a>
 8005c38:	f023 43ff 	bic.w	r3, r3, #2139095040	; 0x7f800000
 8005c3c:	3236      	adds	r2, #54	; 0x36
 8005c3e:	f423 03e0 	bic.w	r3, r3, #7340032	; 0x700000
 8005c42:	ea43 5502 	orr.w	r5, r3, r2, lsl #20
 8005c46:	4620      	mov	r0, r4
 8005c48:	4629      	mov	r1, r5
 8005c4a:	2200      	movs	r2, #0
 8005c4c:	4b06      	ldr	r3, [pc, #24]	; (8005c68 <scalbn+0xe8>)
 8005c4e:	e7b2      	b.n	8005bb6 <scalbn+0x36>
 8005c50:	c2f8f359 	.word	0xc2f8f359
 8005c54:	01a56e1f 	.word	0x01a56e1f
 8005c58:	8800759c 	.word	0x8800759c
 8005c5c:	7e37e43c 	.word	0x7e37e43c
 8005c60:	43500000 	.word	0x43500000
 8005c64:	ffff3cb0 	.word	0xffff3cb0
 8005c68:	3c900000 	.word	0x3c900000

08005c6c <copysign>:
 8005c6c:	ec51 0b10 	vmov	r0, r1, d0
 8005c70:	ee11 0a90 	vmov	r0, s3
 8005c74:	ee10 2a10 	vmov	r2, s0
 8005c78:	f021 4100 	bic.w	r1, r1, #2147483648	; 0x80000000
 8005c7c:	f000 4000 	and.w	r0, r0, #2147483648	; 0x80000000
 8005c80:	ea41 0300 	orr.w	r3, r1, r0
 8005c84:	ec43 2b10 	vmov	d0, r2, r3
 8005c88:	4770      	bx	lr
	...

08005c8c <_init>:
 8005c8c:	b5f8      	push	{r3, r4, r5, r6, r7, lr}
 8005c8e:	bf00      	nop
 8005c90:	bcf8      	pop	{r3, r4, r5, r6, r7}
 8005c92:	bc08      	pop	{r3}
 8005c94:	469e      	mov	lr, r3
 8005c96:	4770      	bx	lr

08005c98 <_fini>:
 8005c98:	b5f8      	push	{r3, r4, r5, r6, r7, lr}
 8005c9a:	bf00      	nop
 8005c9c:	bcf8      	pop	{r3, r4, r5, r6, r7}
 8005c9e:	bc08      	pop	{r3}
 8005ca0:	469e      	mov	lr, r3
 8005ca2:	4770      	bx	lr
